MPLINK 4.48, Linker
Linker Map File - Created Wed Jun 27 04:27:42 2018

                                 Section Info
                  Section       Type    Address   Location Size(Bytes)
                ---------  ---------  ---------  ---------  ---------
               _entry_scn       code   0x000000    program   0x000006
       .code__user_putc.o       code   0x000006    program   0x000002
               HighVector       code   0x000008    program   0x003e84
                   .cinit    romdata   0x003e8c    program   0x00001a
         .code_vfprintf.o       code   0x003ea6    program   0x000c22
                   STRING       code   0x004ac8    program   0x00028e
             .stringtable    romdata   0x004d56    program   0x0000f2
                   STDLIB       code   0x004e48    program   0x0000ea
          .code_sprintf.o       code   0x004f32    program   0x0000ac
                     PROG       code   0x004fde    program   0x0000a6
               _cinit_scn       code   0x005084    program   0x00009e
             .code_putc.o       code   0x005122    program   0x000084
           .code_u2open.o       code   0x0051a6    program   0x000080
          .code_fxm3232.o       code   0x005226    program   0x000070
          .code_write_B.o       code   0x005296    program   0x00005e
           .code_t1open.o       code   0x0052f4    program   0x000054
         .code_fxd3232u.o       code   0x005348    program   0x000048
          .code_t1write.o       code   0x005390    program   0x000038
          .code_t0write.o       code   0x0053c8    program   0x000038
           .code_t0open.o       code   0x005400    program   0x000038
          .code_u2write.o       code   0x005438    program   0x00002e
          .code_u1write.o       code   0x005466    program   0x00002e
         .code_fxd1616u.o       code   0x005494    program   0x00002c
                    CTYPE       code   0x0054c0    program   0x000024
                    .code       code   0x0054e4    program   0x000020
             _startup_scn       code   0x005504    program   0x00001c
                    STDIO       code   0x005520    program   0x00001c
             D100TCYXCODE       code   0x00553c    program   0x00001c
      .romdata_vfprintf.o    romdata   0x005558    program   0x000011
          .romdata_putc.o    romdata   0x005569    program   0x000000
       .idata_u2write.o_i    romdata   0x005569    program   0x000000
       .romdata_u2write.o    romdata   0x005569    program   0x000000
          .idata_putc.o_i    romdata   0x005569    program   0x000000
        .idata_u2defs.o_i    romdata   0x005569    program   0x000000
        .romdata_u2defs.o    romdata   0x005569    program   0x000000
       .idata_t0write.o_i    romdata   0x005569    program   0x000000
       .romdata_t0write.o    romdata   0x005569    program   0x000000
      .idata_vfprintf.o_i    romdata   0x005569    program   0x000000
       .idata_t1write.o_i    romdata   0x005569    program   0x000000
    .idata__user_putc.o_i    romdata   0x005569    program   0x000000
       .romdata_t1write.o    romdata   0x005569    program   0x000000
       .romdata_sprintf.o    romdata   0x005569    program   0x000000
        .idata___init.o_i    romdata   0x005569    program   0x000000
        .romdata___init.o    romdata   0x005569    program   0x000000
       .idata_sprintf.o_i    romdata   0x005569    program   0x000000
    .romdata__user_putc.o    romdata   0x005569    program   0x000000
         .idata_c018i.o_i    romdata   0x005569    program   0x000000
         .romdata_c018i.o    romdata   0x005569    program   0x000000
      .idata_busy_eep.o_i    romdata   0x005569    program   0x000000
      .romdata_busy_eep.o    romdata   0x005569    program   0x000000
       .idata_write_B.o_i    romdata   0x005569    program   0x000000
       .romdata_write_B.o    romdata   0x005569    program   0x000000
        .idata_u2open.o_i    romdata   0x005569    program   0x000000
        .romdata_u2open.o    romdata   0x005569    program   0x000000
         .romdata_main2.o    romdata   0x005569    program   0x000000
      .idata_fxd1616u.o_i    romdata   0x005569    program   0x000000
      .romdata_fxd1616u.o    romdata   0x005569    program   0x000000
      .idata_fxd3232u.o_i    romdata   0x005569    program   0x000000
       .romdata_u1write.o    romdata   0x005569    program   0x000000
       .idata_u1write.o_i    romdata   0x005569    program   0x000000
        .romdata_u1defs.o    romdata   0x005569    program   0x000000
        .idata_u1defs.o_i    romdata   0x005569    program   0x000000
        .romdata_t1open.o    romdata   0x005569    program   0x000000
        .idata_t1open.o_i    romdata   0x005569    program   0x000000
        .romdata_t0open.o    romdata   0x005569    program   0x000000
        .idata_t0open.o_i    romdata   0x005569    program   0x000000
       .romdata_fxm3232.o    romdata   0x005569    program   0x000000
       .idata_fxm3232.o_i    romdata   0x005569    program   0x000000
      .romdata_fxd3232u.o    romdata   0x005569    program   0x000000
            .code_main2.o       code   0x00556a    program   0x000000
           .code_u2defs.o       code   0x00556a    program   0x000000
         .code_busy_eep.o       code   0x00556a    program   0x000006
           .code_u1defs.o       code   0x00556a    program   0x000000
            .code_c018i.o       code   0x00556a    program   0x000000
           .code___init.o       code   0x005570    program   0x000002
                  IDATA_i    romdata   0x005572    program   0x0002b3
         .idata_main2.o_i    romdata   0x005825    program   0x000004
   .config_300000_main2.o    romdata   0x300000    program   0x000001
   .config_300001_main2.o    romdata   0x300001    program   0x000001
   .config_300003_main2.o    romdata   0x300003    program   0x000001
                MATH_DATA      udata   0x000000       data   0x000014
                 .tmpdata      udata   0x000014       data   0x00000c
            MyHighISR_tmp      udata   0x000020       data   0x000002
                DELAYDAT1      udata   0x000022       data   0x000001
           .udata_main2.o      udata   0x000060       data   0x000068
           .udata_c018i.o      udata   0x0000c8       data   0x00000a
           .idata_main2.o      idata   0x0000d2       data   0x000004
          .udata_u2defs.o      udata   0x0000d6       data   0x000001
          .udata_u1defs.o      udata   0x0000d7       data   0x000001
          .idata_t1open.o      idata   0x0000d8       data   0x000000
          .idata_u1defs.o      idata   0x0000d8       data   0x000000
         .udata_u1write.o      udata   0x0000d8       data   0x000000
         .idata_u1write.o      idata   0x0000d8       data   0x000000
         .udata_u2write.o      udata   0x0000d8       data   0x000000
         .idata_u2write.o      idata   0x0000d8       data   0x000000
          .idata_u2defs.o      idata   0x0000d8       data   0x000000
         .udata_t0write.o      udata   0x0000d8       data   0x000000
         .idata_t0write.o      idata   0x0000d8       data   0x000000
         .udata_t1write.o      udata   0x0000d8       data   0x000000
         .idata_t1write.o      idata   0x0000d8       data   0x000000
          .udata___init.o      udata   0x0000d8       data   0x000000
          .idata___init.o      idata   0x0000d8       data   0x000000
         .udata_sprintf.o      udata   0x0000d8       data   0x000000
         .idata_sprintf.o      idata   0x0000d8       data   0x000000
        .udata_vfprintf.o      udata   0x0000d8       data   0x000000
        .idata_vfprintf.o      idata   0x0000d8       data   0x000000
            .udata_putc.o      udata   0x0000d8       data   0x000000
            .idata_putc.o      idata   0x0000d8       data   0x000000
      .udata__user_putc.o      udata   0x0000d8       data   0x000000
      .idata__user_putc.o      idata   0x0000d8       data   0x000000
         .udata_write_B.o      udata   0x0000d8       data   0x000000
         .idata_write_B.o      idata   0x0000d8       data   0x000000
          .udata_u2open.o      udata   0x0000d8       data   0x000000
          .idata_u2open.o      idata   0x0000d8       data   0x000000
        .idata_busy_eep.o      idata   0x0000d8       data   0x000000
        .udata_busy_eep.o      udata   0x0000d8       data   0x000000
           .idata_c018i.o      idata   0x0000d8       data   0x000000
        .udata_fxd1616u.o      udata   0x0000d8       data   0x000000
        .idata_fxd1616u.o      idata   0x0000d8       data   0x000000
        .udata_fxd3232u.o      udata   0x0000d8       data   0x000000
        .idata_fxd3232u.o      idata   0x0000d8       data   0x000000
         .udata_fxm3232.o      udata   0x0000d8       data   0x000000
         .idata_fxm3232.o      idata   0x0000d8       data   0x000000
          .udata_t0open.o      udata   0x0000d8       data   0x000000
          .idata_t0open.o      idata   0x0000d8       data   0x000000
          .udata_t1open.o      udata   0x0000d8       data   0x000000
                  BIGDATA      udata   0x000100       data   0x000661
                 UARTDATA      udata   0x000761       data   0x00016d
                    IDATA      idata   0x000a00       data   0x0002b3
                   .stack      udata   0x000d00       data   0x000100
              SFR_BANKED0      udata   0x000e41       data   0x0000bf
              SFR_BANKED1      udata   0x000f00       data   0x000040
              SFR_BANKED2      udata   0x000f47       data   0x000019
            SFR_UNBANKED0      udata   0x000f60       data   0x0000a0



                              Program Memory Usage 
                               Start         End      
                           ---------   ---------      
                            0x000000    0x005568      
                            0x00556a    0x005828      
                            0x300000    0x300001      
                            0x300003    0x300003      
            22571 out of 33816 program addresses used, program memory utilization is 66%



                              Symbols - Sorted by Name
                     Name    Address   Location    Storage File                     
                ---------  ---------  ---------  --------- ---------                
                 ArmUnits   0x002422    program     extern C:\Users\pete\Desktop\Development\FiringSystemDdevelopment\PIC\HandControllerTriggerPortorCue\main2.c
                    Blink   0x002596    program     extern C:\Users\pete\Desktop\Development\FiringSystemDdevelopment\PIC\HandControllerTriggerPortorCue\main2.c
                  BlinkNG   0x00258e    program     extern C:\Users\pete\Desktop\Development\FiringSystemDdevelopment\PIC\HandControllerTriggerPortorCue\main2.c
                  BlinkOK   0x002586    program     extern C:\Users\pete\Desktop\Development\FiringSystemDdevelopment\PIC\HandControllerTriggerPortorCue\main2.c
                Broadcast   0x001c62    program     extern C:\Users\pete\Desktop\Development\FiringSystemDdevelopment\PIC\HandControllerTriggerPortorCue\main2.c
            BroadcastTime   0x002368    program     extern C:\Users\pete\Desktop\Development\FiringSystemDdevelopment\PIC\HandControllerTriggerPortorCue\main2.c
    BumpSendMessageNumber   0x001892    program     extern C:\Users\pete\Desktop\Development\FiringSystemDdevelopment\PIC\HandControllerTriggerPortorCue\main2.c
                 Busy_eep   0x00556a    program     extern C:\Users\pete\Desktop\Development\FiringSystemDdevelopment\PIC\HandControllerTriggerPortorCue\busy_eep.c
               CheckDigit   0x001cce    program     extern C:\Users\pete\Desktop\Development\FiringSystemDdevelopment\PIC\HandControllerTriggerPortorCue\main2.c
              CheckTimer1   0x003550    program     extern C:\Users\pete\Desktop\Development\FiringSystemDdevelopment\PIC\HandControllerTriggerPortorCue\main2.c
                   D100_1   0x00554a    program     static E:\c18v3.46\pic18-lt\cxx-framework\src\traditional\delays\d100tcyx.asm
                    D100x   0x005548    program     static E:\c18v3.46\pic18-lt\cxx-framework\src\traditional\delays\d100tcyx.asm
                   D1616S   0x005000    program     static E:\c18v3.46\pic18-lt\cxx-framework\src\traditional\math\fxd1616s.asm
                D1616SNEG   0x00500e    program     static E:\c18v3.46\pic18-lt\cxx-framework\src\traditional\math\fxd1616s.asm
                 D1616SOK   0x00500a    program     static E:\c18v3.46\pic18-lt\cxx-framework\src\traditional\math\fxd1616s.asm
                  D1616SX   0x005020    program     static E:\c18v3.46\pic18-lt\cxx-framework\src\traditional\math\fxd1616s.asm
                  DA1616S   0x004ff0    program     static E:\c18v3.46\pic18-lt\cxx-framework\src\traditional\math\fxd1616s.asm
            DataRdyUSART1   0x000732    program     extern C:\Users\pete\Desktop\Development\FiringSystemDdevelopment\PIC\HandControllerTriggerPortorCue\cranwellP18F25K80.h
             Delay100TCYx   0x00553c    program     extern E:\c18v3.46\pic18-lt\cxx-framework\src\traditional\delays\d100tcyx.asm
                  DelayMS   0x00074e    program     extern C:\Users\pete\Desktop\Development\FiringSystemDdevelopment\PIC\HandControllerTriggerPortorCue\cranwellP18F25K80.h
              DisArmUnits   0x0024be    program     extern C:\Users\pete\Desktop\Development\FiringSystemDdevelopment\PIC\HandControllerTriggerPortorCue\main2.c
                 FXD1616S   0x004fde    program     extern E:\c18v3.46\pic18-lt\cxx-framework\src\traditional\math\fxd1616s.asm
                 FXD1616U   0x005494    program     extern E:\c18v3.46\pic18-lt\cxx-framework\src\traditional\math\fxd1616u.c
                 FXD3232U   0x005348    program     extern E:\c18v3.46\pic18-lt\cxx-framework\src\traditional\math\fxd3232u.c
                 FXM1616S   0x00502a    program     extern E:\c18v3.46\pic18-lt\cxx-framework\src\traditional\math\fxm1616s.asm
                  FXM3232   0x005226    program     extern E:\c18v3.46\pic18-lt\cxx-framework\src\traditional\math\fxm3232.c
                 FastPoll   0x002792    program     extern C:\Users\pete\Desktop\Development\FiringSystemDdevelopment\PIC\HandControllerTriggerPortorCue\main2.c
                  FireCue   0x003438    program     extern C:\Users\pete\Desktop\Development\FiringSystemDdevelopment\PIC\HandControllerTriggerPortorCue\main2.c
                 FirePort   0x003c0e    program     extern C:\Users\pete\Desktop\Development\FiringSystemDdevelopment\PIC\HandControllerTriggerPortorCue\main2.c
               GetCommand   0x001f6e    program     extern C:\Users\pete\Desktop\Development\FiringSystemDdevelopment\PIC\HandControllerTriggerPortorCue\main2.c
                GetKeypad   0x0031fa    program     extern C:\Users\pete\Desktop\Development\FiringSystemDdevelopment\PIC\HandControllerTriggerPortorCue\main2.c
       GetNextUnitAndPort   0x003a54    program     extern C:\Users\pete\Desktop\Development\FiringSystemDdevelopment\PIC\HandControllerTriggerPortorCue\main2.c
           GetPedalStatus   0x002556    program     extern C:\Users\pete\Desktop\Development\FiringSystemDdevelopment\PIC\HandControllerTriggerPortorCue\main2.c
                 GetPin10   0x000a48    program     extern C:\Users\pete\Desktop\Development\FiringSystemDdevelopment\PIC\HandControllerTriggerPortorCue\cranwellP18F25K80.h
                 GetPin11   0x000a7a    program     extern C:\Users\pete\Desktop\Development\FiringSystemDdevelopment\PIC\HandControllerTriggerPortorCue\cranwellP18F25K80.h
                 GetPin12   0x000aac    program     extern C:\Users\pete\Desktop\Development\FiringSystemDdevelopment\PIC\HandControllerTriggerPortorCue\cranwellP18F25K80.h
                 GetPin13   0x000ade    program     extern C:\Users\pete\Desktop\Development\FiringSystemDdevelopment\PIC\HandControllerTriggerPortorCue\cranwellP18F25K80.h
                 GetPin14   0x000b10    program     extern C:\Users\pete\Desktop\Development\FiringSystemDdevelopment\PIC\HandControllerTriggerPortorCue\cranwellP18F25K80.h
                 GetPin15   0x000b42    program     extern C:\Users\pete\Desktop\Development\FiringSystemDdevelopment\PIC\HandControllerTriggerPortorCue\cranwellP18F25K80.h
                 GetPin16   0x000b74    program     extern C:\Users\pete\Desktop\Development\FiringSystemDdevelopment\PIC\HandControllerTriggerPortorCue\cranwellP18F25K80.h
                  GetPin2   0x0008ba    program     extern C:\Users\pete\Desktop\Development\FiringSystemDdevelopment\PIC\HandControllerTriggerPortorCue\cranwellP18F25K80.h
                 GetPin21   0x000ba6    program     extern C:\Users\pete\Desktop\Development\FiringSystemDdevelopment\PIC\HandControllerTriggerPortorCue\cranwellP18F25K80.h
                 GetPin22   0x000bd8    program     extern C:\Users\pete\Desktop\Development\FiringSystemDdevelopment\PIC\HandControllerTriggerPortorCue\cranwellP18F25K80.h
                 GetPin23   0x000c0a    program     extern C:\Users\pete\Desktop\Development\FiringSystemDdevelopment\PIC\HandControllerTriggerPortorCue\cranwellP18F25K80.h
                 GetPin24   0x000c3c    program     extern C:\Users\pete\Desktop\Development\FiringSystemDdevelopment\PIC\HandControllerTriggerPortorCue\cranwellP18F25K80.h
                 GetPin25   0x000c6e    program     extern C:\Users\pete\Desktop\Development\FiringSystemDdevelopment\PIC\HandControllerTriggerPortorCue\cranwellP18F25K80.h
                 GetPin26   0x000ca0    program     extern C:\Users\pete\Desktop\Development\FiringSystemDdevelopment\PIC\HandControllerTriggerPortorCue\cranwellP18F25K80.h
                 GetPin27   0x000cd2    program     extern C:\Users\pete\Desktop\Development\FiringSystemDdevelopment\PIC\HandControllerTriggerPortorCue\cranwellP18F25K80.h
                 GetPin28   0x000d04    program     extern C:\Users\pete\Desktop\Development\FiringSystemDdevelopment\PIC\HandControllerTriggerPortorCue\cranwellP18F25K80.h
                  GetPin3   0x0008f8    program     extern C:\Users\pete\Desktop\Development\FiringSystemDdevelopment\PIC\HandControllerTriggerPortorCue\cranwellP18F25K80.h
                  GetPin4   0x000936    program     extern C:\Users\pete\Desktop\Development\FiringSystemDdevelopment\PIC\HandControllerTriggerPortorCue\cranwellP18F25K80.h
                  GetPin5   0x000974    program     extern C:\Users\pete\Desktop\Development\FiringSystemDdevelopment\PIC\HandControllerTriggerPortorCue\cranwellP18F25K80.h
                  GetPin6   0x0009b2    program     extern C:\Users\pete\Desktop\Development\FiringSystemDdevelopment\PIC\HandControllerTriggerPortorCue\cranwellP18F25K80.h
                  GetPin7   0x0009e4    program     extern C:\Users\pete\Desktop\Development\FiringSystemDdevelopment\PIC\HandControllerTriggerPortorCue\cranwellP18F25K80.h
                  GetPin9   0x000a16    program     extern C:\Users\pete\Desktop\Development\FiringSystemDdevelopment\PIC\HandControllerTriggerPortorCue\cranwellP18F25K80.h
                GetSubcmd   0x003de2    program     extern C:\Users\pete\Desktop\Development\FiringSystemDdevelopment\PIC\HandControllerTriggerPortorCue\main2.c
        GetTriggerCommand   0x003ae2    program     extern C:\Users\pete\Desktop\Development\FiringSystemDdevelopment\PIC\HandControllerTriggerPortorCue\main2.c
              GlobalReset   0x0026e0    program     extern C:\Users\pete\Desktop\Development\FiringSystemDdevelopment\PIC\HandControllerTriggerPortorCue\main2.c
               HighVector   0x000008    program     extern C:\Users\pete\Desktop\Development\FiringSystemDdevelopment\PIC\HandControllerTriggerPortorCue\cranwellP18F25K80.h
           InitializeData   0x001e52    program     extern C:\Users\pete\Desktop\Development\FiringSystemDdevelopment\PIC\HandControllerTriggerPortorCue\main2.c
       InitializeHardware   0x00256e    program     extern C:\Users\pete\Desktop\Development\FiringSystemDdevelopment\PIC\HandControllerTriggerPortorCue\main2.c
                  IntToCh   0x001820    program     extern C:\Users\pete\Desktop\Development\FiringSystemDdevelopment\PIC\HandControllerTriggerPortorCue\main2.c
                 LCDClear   0x00085e    program     extern C:\Users\pete\Desktop\Development\FiringSystemDdevelopment\PIC\HandControllerTriggerPortorCue\cranwellP18F25K80.h
                    LCDON   0x000844    program     extern C:\Users\pete\Desktop\Development\FiringSystemDdevelopment\PIC\HandControllerTriggerPortorCue\cranwellP18F25K80.h
                 LCDReset   0x000878    program     extern C:\Users\pete\Desktop\Development\FiringSystemDdevelopment\PIC\HandControllerTriggerPortorCue\cranwellP18F25K80.h
                 LoadShow   0x002618    program     extern C:\Users\pete\Desktop\Development\FiringSystemDdevelopment\PIC\HandControllerTriggerPortorCue\main2.c
                MyHighISR   0x00001e    program     extern C:\Users\pete\Desktop\Development\FiringSystemDdevelopment\PIC\HandControllerTriggerPortorCue\cranwellP18F25K80.h
             Myputs2USART   0x0007ca    program     extern C:\Users\pete\Desktop\Development\FiringSystemDdevelopment\PIC\HandControllerTriggerPortorCue\cranwellP18F25K80.h
    Open1USARTpic18f25k80   0x00056a    program     extern C:\Users\pete\Desktop\Development\FiringSystemDdevelopment\PIC\HandControllerTriggerPortorCue\cranwellP18F25K80.h
               Open2USART   0x0051a6    program     extern C:\Users\pete\Desktop\Development\FiringSystemDdevelopment\PIC\HandControllerTriggerPortorCue\u2open.c
    Open2USARTpic18f25k80   0x000590    program     extern C:\Users\pete\Desktop\Development\FiringSystemDdevelopment\PIC\HandControllerTriggerPortorCue\cranwellP18F25K80.h
               OpenTimer0   0x005400    program     extern E:\c18v3.46\pic18-lt\cxx-framework\src\pmc_common\Timers\t0open.c
               OpenTimer1   0x0052f4    program     extern E:\c18v3.46\pic18-lt\cxx-framework\src\pmc_common\Timers\t1open.c
                Pin10HIGH   0x000a2c    program     extern C:\Users\pete\Desktop\Development\FiringSystemDdevelopment\PIC\HandControllerTriggerPortorCue\cranwellP18F25K80.h
                 Pin10LOW   0x000a3a    program     extern C:\Users\pete\Desktop\Development\FiringSystemDdevelopment\PIC\HandControllerTriggerPortorCue\cranwellP18F25K80.h
                Pin11HIGH   0x000a5e    program     extern C:\Users\pete\Desktop\Development\FiringSystemDdevelopment\PIC\HandControllerTriggerPortorCue\cranwellP18F25K80.h
                 Pin11LOW   0x000a6c    program     extern C:\Users\pete\Desktop\Development\FiringSystemDdevelopment\PIC\HandControllerTriggerPortorCue\cranwellP18F25K80.h
                Pin12HIGH   0x000a90    program     extern C:\Users\pete\Desktop\Development\FiringSystemDdevelopment\PIC\HandControllerTriggerPortorCue\cranwellP18F25K80.h
                 Pin12LOW   0x000a9e    program     extern C:\Users\pete\Desktop\Development\FiringSystemDdevelopment\PIC\HandControllerTriggerPortorCue\cranwellP18F25K80.h
                Pin13HIGH   0x000ac2    program     extern C:\Users\pete\Desktop\Development\FiringSystemDdevelopment\PIC\HandControllerTriggerPortorCue\cranwellP18F25K80.h
                 Pin13LOW   0x000ad0    program     extern C:\Users\pete\Desktop\Development\FiringSystemDdevelopment\PIC\HandControllerTriggerPortorCue\cranwellP18F25K80.h
                Pin14HIGH   0x000af4    program     extern C:\Users\pete\Desktop\Development\FiringSystemDdevelopment\PIC\HandControllerTriggerPortorCue\cranwellP18F25K80.h
                 Pin14LOW   0x000b02    program     extern C:\Users\pete\Desktop\Development\FiringSystemDdevelopment\PIC\HandControllerTriggerPortorCue\cranwellP18F25K80.h
                Pin15HIGH   0x000b26    program     extern C:\Users\pete\Desktop\Development\FiringSystemDdevelopment\PIC\HandControllerTriggerPortorCue\cranwellP18F25K80.h
                 Pin15LOW   0x000b34    program     extern C:\Users\pete\Desktop\Development\FiringSystemDdevelopment\PIC\HandControllerTriggerPortorCue\cranwellP18F25K80.h
                Pin16HIGH   0x000b58    program     extern C:\Users\pete\Desktop\Development\FiringSystemDdevelopment\PIC\HandControllerTriggerPortorCue\cranwellP18F25K80.h
                 Pin16LOW   0x000b66    program     extern C:\Users\pete\Desktop\Development\FiringSystemDdevelopment\PIC\HandControllerTriggerPortorCue\cranwellP18F25K80.h
                Pin21HIGH   0x000b8a    program     extern C:\Users\pete\Desktop\Development\FiringSystemDdevelopment\PIC\HandControllerTriggerPortorCue\cranwellP18F25K80.h
                 Pin21LOW   0x000b98    program     extern C:\Users\pete\Desktop\Development\FiringSystemDdevelopment\PIC\HandControllerTriggerPortorCue\cranwellP18F25K80.h
                Pin22HIGH   0x000bbc    program     extern C:\Users\pete\Desktop\Development\FiringSystemDdevelopment\PIC\HandControllerTriggerPortorCue\cranwellP18F25K80.h
                 Pin22LOW   0x000bca    program     extern C:\Users\pete\Desktop\Development\FiringSystemDdevelopment\PIC\HandControllerTriggerPortorCue\cranwellP18F25K80.h
                Pin23HIGH   0x000bee    program     extern C:\Users\pete\Desktop\Development\FiringSystemDdevelopment\PIC\HandControllerTriggerPortorCue\cranwellP18F25K80.h
                 Pin23LOW   0x000bfc    program     extern C:\Users\pete\Desktop\Development\FiringSystemDdevelopment\PIC\HandControllerTriggerPortorCue\cranwellP18F25K80.h
                Pin24HIGH   0x000c20    program     extern C:\Users\pete\Desktop\Development\FiringSystemDdevelopment\PIC\HandControllerTriggerPortorCue\cranwellP18F25K80.h
                 Pin24LOW   0x000c2e    program     extern C:\Users\pete\Desktop\Development\FiringSystemDdevelopment\PIC\HandControllerTriggerPortorCue\cranwellP18F25K80.h
                Pin25HIGH   0x000c52    program     extern C:\Users\pete\Desktop\Development\FiringSystemDdevelopment\PIC\HandControllerTriggerPortorCue\cranwellP18F25K80.h
                 Pin25LOW   0x000c60    program     extern C:\Users\pete\Desktop\Development\FiringSystemDdevelopment\PIC\HandControllerTriggerPortorCue\cranwellP18F25K80.h
                Pin26HIGH   0x000c84    program     extern C:\Users\pete\Desktop\Development\FiringSystemDdevelopment\PIC\HandControllerTriggerPortorCue\cranwellP18F25K80.h
                 Pin26LOW   0x000c92    program     extern C:\Users\pete\Desktop\Development\FiringSystemDdevelopment\PIC\HandControllerTriggerPortorCue\cranwellP18F25K80.h
                Pin27HIGH   0x000cb6    program     extern C:\Users\pete\Desktop\Development\FiringSystemDdevelopment\PIC\HandControllerTriggerPortorCue\cranwellP18F25K80.h
                 Pin27LOW   0x000cc4    program     extern C:\Users\pete\Desktop\Development\FiringSystemDdevelopment\PIC\HandControllerTriggerPortorCue\cranwellP18F25K80.h
                Pin28HIGH   0x000ce8    program     extern C:\Users\pete\Desktop\Development\FiringSystemDdevelopment\PIC\HandControllerTriggerPortorCue\cranwellP18F25K80.h
                 Pin28LOW   0x000cf6    program     extern C:\Users\pete\Desktop\Development\FiringSystemDdevelopment\PIC\HandControllerTriggerPortorCue\cranwellP18F25K80.h
                 Pin2HIGH   0x000892    program     extern C:\Users\pete\Desktop\Development\FiringSystemDdevelopment\PIC\HandControllerTriggerPortorCue\cranwellP18F25K80.h
                  Pin2LOW   0x0008a6    program     extern C:\Users\pete\Desktop\Development\FiringSystemDdevelopment\PIC\HandControllerTriggerPortorCue\cranwellP18F25K80.h
                 Pin3HIGH   0x0008d0    program     extern C:\Users\pete\Desktop\Development\FiringSystemDdevelopment\PIC\HandControllerTriggerPortorCue\cranwellP18F25K80.h
                  Pin3LOW   0x0008e4    program     extern C:\Users\pete\Desktop\Development\FiringSystemDdevelopment\PIC\HandControllerTriggerPortorCue\cranwellP18F25K80.h
                 Pin4HIGH   0x00090e    program     extern C:\Users\pete\Desktop\Development\FiringSystemDdevelopment\PIC\HandControllerTriggerPortorCue\cranwellP18F25K80.h
                  Pin4LOW   0x000922    program     extern C:\Users\pete\Desktop\Development\FiringSystemDdevelopment\PIC\HandControllerTriggerPortorCue\cranwellP18F25K80.h
                 Pin5HIGH   0x00094c    program     extern C:\Users\pete\Desktop\Development\FiringSystemDdevelopment\PIC\HandControllerTriggerPortorCue\cranwellP18F25K80.h
                  Pin5LOW   0x000960    program     extern C:\Users\pete\Desktop\Development\FiringSystemDdevelopment\PIC\HandControllerTriggerPortorCue\cranwellP18F25K80.h
                 Pin6HIGH   0x00098a    program     extern C:\Users\pete\Desktop\Development\FiringSystemDdevelopment\PIC\HandControllerTriggerPortorCue\cranwellP18F25K80.h
                  Pin6LOW   0x00099e    program     extern C:\Users\pete\Desktop\Development\FiringSystemDdevelopment\PIC\HandControllerTriggerPortorCue\cranwellP18F25K80.h
                 Pin7HIGH   0x0009c8    program     extern C:\Users\pete\Desktop\Development\FiringSystemDdevelopment\PIC\HandControllerTriggerPortorCue\cranwellP18F25K80.h
                  Pin7LOW   0x0009d6    program     extern C:\Users\pete\Desktop\Development\FiringSystemDdevelopment\PIC\HandControllerTriggerPortorCue\cranwellP18F25K80.h
                 Pin9HIGH   0x0009fa    program     extern C:\Users\pete\Desktop\Development\FiringSystemDdevelopment\PIC\HandControllerTriggerPortorCue\cranwellP18F25K80.h
                  Pin9LOW   0x000a08    program     extern C:\Users\pete\Desktop\Development\FiringSystemDdevelopment\PIC\HandControllerTriggerPortorCue\cranwellP18F25K80.h
                  PinHIGH   0x000d1a    program     extern C:\Users\pete\Desktop\Development\FiringSystemDdevelopment\PIC\HandControllerTriggerPortorCue\cranwellP18F25K80.h
                   PinLOW   0x000e76    program     extern C:\Users\pete\Desktop\Development\FiringSystemDdevelopment\PIC\HandControllerTriggerPortorCue\cranwellP18F25K80.h
                  PinTest   0x000fd2    program     extern C:\Users\pete\Desktop\Development\FiringSystemDdevelopment\PIC\HandControllerTriggerPortorCue\cranwellP18F25K80.h
                ResetLEDs   0x003056    program     extern C:\Users\pete\Desktop\Development\FiringSystemDdevelopment\PIC\HandControllerTriggerPortorCue\main2.c
              ResetTimer0   0x0002a6    program     extern C:\Users\pete\Desktop\Development\FiringSystemDdevelopment\PIC\HandControllerTriggerPortorCue\cranwellP18F25K80.h
              ResetTimer1   0x000414    program     extern C:\Users\pete\Desktop\Development\FiringSystemDdevelopment\PIC\HandControllerTriggerPortorCue\cranwellP18F25K80.h
                   Scroll   0x0035be    program     extern C:\Users\pete\Desktop\Development\FiringSystemDdevelopment\PIC\HandControllerTriggerPortorCue\main2.c
                  SendLCD   0x001f3a    program     extern C:\Users\pete\Desktop\Development\FiringSystemDdevelopment\PIC\HandControllerTriggerPortorCue\main2.c
                 SlowPoll   0x002bee    program     extern C:\Users\pete\Desktop\Development\FiringSystemDdevelopment\PIC\HandControllerTriggerPortorCue\main2.c
             StartSession   0x003068    program     extern C:\Users\pete\Desktop\Development\FiringSystemDdevelopment\PIC\HandControllerTriggerPortorCue\main2.c
              StartTimer0   0x00012a    program     extern C:\Users\pete\Desktop\Development\FiringSystemDdevelopment\PIC\HandControllerTriggerPortorCue\cranwellP18F25K80.h
              StartTimer1   0x000136    program     extern C:\Users\pete\Desktop\Development\FiringSystemDdevelopment\PIC\HandControllerTriggerPortorCue\cranwellP18F25K80.h
               StartUnits   0x0031a4    program     extern C:\Users\pete\Desktop\Development\FiringSystemDdevelopment\PIC\HandControllerTriggerPortorCue\main2.c
               TSIGN1616A   0x005076    program     static E:\c18v3.46\pic18-lt\cxx-framework\src\traditional\math\fxm1616s.asm
              Transaction   0x00197e    program     extern C:\Users\pete\Desktop\Development\FiringSystemDdevelopment\PIC\HandControllerTriggerPortorCue\main2.c
               TriggerCue   0x003d42    program     extern C:\Users\pete\Desktop\Development\FiringSystemDdevelopment\PIC\HandControllerTriggerPortorCue\main2.c
              TriggerPort   0x003ca8    program     extern C:\Users\pete\Desktop\Development\FiringSystemDdevelopment\PIC\HandControllerTriggerPortorCue\main2.c
               Wait2USART   0x000740    program     extern C:\Users\pete\Desktop\Development\FiringSystemDdevelopment\PIC\HandControllerTriggerPortorCue\cranwellP18F25K80.h
              Write1USART   0x005466    program     extern E:\c18v3.46\pic18-lt\cxx-framework\src\pmc_common\USART\u1write.c
              Write2USART   0x005438    program     extern E:\c18v3.46\pic18-lt\cxx-framework\src\pmc_common\USART\u2write.c
                WriteOLED   0x003572    program     extern C:\Users\pete\Desktop\Development\FiringSystemDdevelopment\PIC\HandControllerTriggerPortorCue\main2.c
              WriteTimer0   0x0053c8    program     extern E:\c18v3.46\pic18-lt\cxx-framework\src\pmc_common\Timers\t0write.c
              WriteTimer1   0x005390    program     extern E:\c18v3.46\pic18-lt\cxx-framework\src\pmc_common\Timers\t1write.c
              Write_b_eep   0x005296    program     extern C:\Users\pete\Desktop\Development\FiringSystemDdevelopment\PIC\HandControllerTriggerPortorCue\write_B.c
              _2jContinue   0x004b3e    program     static E:\c18v3.46\pic18-lt\cxx-framework\src\traditional\stdclib\memset.asm
                   _2jEnd   0x004d40    program     static E:\c18v3.46\pic18-lt\cxx-framework\src\traditional\stdclib\slenpgm.asm
                   _3jEnd   0x004b48    program     static E:\c18v3.46\pic18-lt\cxx-framework\src\traditional\stdclib\memset.asm
              _4jContinue   0x004c86    program     static E:\c18v3.46\pic18-lt\cxx-framework\src\traditional\stdclib\strncmp.asm
              _4jContinue   0x004ce4    program     static E:\c18v3.46\pic18-lt\cxx-framework\src\traditional\stdclib\strncpy.asm
              _4jContinue   0x004c32    program     static E:\c18v3.46\pic18-lt\cxx-framework\src\traditional\stdclib\strncat.asm
              _4jContinue   0x004afc    program     static E:\c18v3.46\pic18-lt\cxx-framework\src\traditional\stdclib\memcpy.asm
                   _5jEnd   0x004c90    program     static E:\c18v3.46\pic18-lt\cxx-framework\src\traditional\stdclib\strncmp.asm
                   _5jEnd   0x004cee    program     static E:\c18v3.46\pic18-lt\cxx-framework\src\traditional\stdclib\strncpy.asm
                   _5jEnd   0x004c3c    program     static E:\c18v3.46\pic18-lt\cxx-framework\src\traditional\stdclib\strncat.asm
                   _5jEnd   0x004b06    program     static E:\c18v3.46\pic18-lt\cxx-framework\src\traditional\stdclib\memcpy.asm
       _D100TCYXCODE_0008   0x005544    program     static E:\c18v3.46\pic18-lt\cxx-framework\src\traditional\delays\d100tcyx.asm
       _D100TCYXCODE_0012   0x00554e    program     static E:\c18v3.46\pic18-lt\cxx-framework\src\traditional\delays\d100tcyx.asm
       _D100TCYXCODE_0018   0x005554    program     static E:\c18v3.46\pic18-lt\cxx-framework\src\traditional\delays\d100tcyx.asm
           ___if_lbl00002   0x00005a    program     static                          
           ___if_lbl00003   0x000070    program     static                          
           ___if_lbl00004   0x000092    program     static                          
           ___if_lbl00005   0x0000ba    program     static                          
           ___if_lbl00006   0x0000e6    program     static                          
           ___if_lbl00007   0x0000e6    program     static                          
           ___if_lbl00008   0x0000fc    program     static                          
       ___return_lbl00000   0x0054be    program     static                          
       ___return_lbl00000   0x000004    program     static                          
       ___return_lbl00000   0x00538e    program     static                          
       ___return_lbl00000   0x005294    program     static                          
       ___return_lbl00000   0x00001c    program     static                          
       ___return_lbl00001   0x000110    program     static                          
       ___return_lbl00001   0x00551e    program     static                          
       ___return_lbl00002   0x005120    program     static                          
               __config_0   0x300000    program     static C:\Users\pete\Desktop\Development\FiringSystemDdevelopment\PIC\HandControllerTriggerPortorCue\main2.c
               __config_1   0x300001    program     static C:\Users\pete\Desktop\Development\FiringSystemDdevelopment\PIC\HandControllerTriggerPortorCue\main2.c
               __config_2   0x300003    program     static C:\Users\pete\Desktop\Development\FiringSystemDdevelopment\PIC\HandControllerTriggerPortorCue\main2.c
                   __init   0x005570    program     extern E:\c18v3.46\pic18-lt\cxx-framework\src\traditional\stdclib\__init.c
                   __pa_0   0x0047e6    program     static E:\c18v3.46\pic18-lt\cxx-framework\src\traditional\stdclib\vfprintf.c
                   __pa_1   0x0047ee    program     static E:\c18v3.46\pic18-lt\cxx-framework\src\traditional\stdclib\vfprintf.c
                  __pa_10   0x0048a2    program     static E:\c18v3.46\pic18-lt\cxx-framework\src\traditional\stdclib\vfprintf.c
                  __pa_11   0x0048b0    program     static E:\c18v3.46\pic18-lt\cxx-framework\src\traditional\stdclib\vfprintf.c
                  __pa_12   0x0048c6    program     static E:\c18v3.46\pic18-lt\cxx-framework\src\traditional\stdclib\vfprintf.c
                  __pa_13   0x0048e0    program     static E:\c18v3.46\pic18-lt\cxx-framework\src\traditional\stdclib\vfprintf.c
                  __pa_14   0x0048f8    program     static E:\c18v3.46\pic18-lt\cxx-framework\src\traditional\stdclib\vfprintf.c
                  __pa_15   0x004908    program     static E:\c18v3.46\pic18-lt\cxx-framework\src\traditional\stdclib\vfprintf.c
                  __pa_16   0x00491e    program     static E:\c18v3.46\pic18-lt\cxx-framework\src\traditional\stdclib\vfprintf.c
                  __pa_17   0x004930    program     static E:\c18v3.46\pic18-lt\cxx-framework\src\traditional\stdclib\vfprintf.c
                  __pa_18   0x004942    program     static E:\c18v3.46\pic18-lt\cxx-framework\src\traditional\stdclib\vfprintf.c
                  __pa_19   0x00494c    program     static E:\c18v3.46\pic18-lt\cxx-framework\src\traditional\stdclib\vfprintf.c
                   __pa_2   0x0047f8    program     static E:\c18v3.46\pic18-lt\cxx-framework\src\traditional\stdclib\vfprintf.c
                  __pa_20   0x00495c    program     static E:\c18v3.46\pic18-lt\cxx-framework\src\traditional\stdclib\vfprintf.c
                  __pa_21   0x00496c    program     static E:\c18v3.46\pic18-lt\cxx-framework\src\traditional\stdclib\vfprintf.c
                  __pa_22   0x00497c    program     static E:\c18v3.46\pic18-lt\cxx-framework\src\traditional\stdclib\vfprintf.c
                  __pa_23   0x004988    program     static E:\c18v3.46\pic18-lt\cxx-framework\src\traditional\stdclib\vfprintf.c
                  __pa_24   0x004996    program     static E:\c18v3.46\pic18-lt\cxx-framework\src\traditional\stdclib\vfprintf.c
                  __pa_25   0x00499e    program     static E:\c18v3.46\pic18-lt\cxx-framework\src\traditional\stdclib\vfprintf.c
                  __pa_26   0x0049a8    program     static E:\c18v3.46\pic18-lt\cxx-framework\src\traditional\stdclib\vfprintf.c
                  __pa_27   0x0049b2    program     static E:\c18v3.46\pic18-lt\cxx-framework\src\traditional\stdclib\vfprintf.c
                  __pa_28   0x0049ba    program     static E:\c18v3.46\pic18-lt\cxx-framework\src\traditional\stdclib\vfprintf.c
                  __pa_29   0x0049c8    program     static E:\c18v3.46\pic18-lt\cxx-framework\src\traditional\stdclib\vfprintf.c
                   __pa_3   0x004802    program     static E:\c18v3.46\pic18-lt\cxx-framework\src\traditional\stdclib\vfprintf.c
                  __pa_30   0x0049e4    program     static E:\c18v3.46\pic18-lt\cxx-framework\src\traditional\stdclib\vfprintf.c
                  __pa_31   0x0049fe    program     static E:\c18v3.46\pic18-lt\cxx-framework\src\traditional\stdclib\vfprintf.c
                  __pa_32   0x004a18    program     static E:\c18v3.46\pic18-lt\cxx-framework\src\traditional\stdclib\vfprintf.c
                  __pa_33   0x004a30    program     static E:\c18v3.46\pic18-lt\cxx-framework\src\traditional\stdclib\vfprintf.c
                  __pa_34   0x004a3a    program     static E:\c18v3.46\pic18-lt\cxx-framework\src\traditional\stdclib\vfprintf.c
                  __pa_35   0x004a48    program     static E:\c18v3.46\pic18-lt\cxx-framework\src\traditional\stdclib\vfprintf.c
                  __pa_36   0x004a50    program     static E:\c18v3.46\pic18-lt\cxx-framework\src\traditional\stdclib\vfprintf.c
                  __pa_37   0x004a5a    program     static E:\c18v3.46\pic18-lt\cxx-framework\src\traditional\stdclib\vfprintf.c
                  __pa_38   0x004a6a    program     static E:\c18v3.46\pic18-lt\cxx-framework\src\traditional\stdclib\vfprintf.c
                  __pa_39   0x004a78    program     static E:\c18v3.46\pic18-lt\cxx-framework\src\traditional\stdclib\vfprintf.c
                   __pa_4   0x00481a    program     static E:\c18v3.46\pic18-lt\cxx-framework\src\traditional\stdclib\vfprintf.c
                  __pa_40   0x004a84    program     static E:\c18v3.46\pic18-lt\cxx-framework\src\traditional\stdclib\vfprintf.c
                  __pa_41   0x004a90    program     static E:\c18v3.46\pic18-lt\cxx-framework\src\traditional\stdclib\vfprintf.c
                  __pa_42   0x004a98    program     static E:\c18v3.46\pic18-lt\cxx-framework\src\traditional\stdclib\vfprintf.c
                  __pa_43   0x004aa2    program     static E:\c18v3.46\pic18-lt\cxx-framework\src\traditional\stdclib\vfprintf.c
                  __pa_44   0x004aa8    program     static E:\c18v3.46\pic18-lt\cxx-framework\src\traditional\stdclib\vfprintf.c
                  __pa_45   0x004ab2    program     static E:\c18v3.46\pic18-lt\cxx-framework\src\traditional\stdclib\vfprintf.c
                  __pa_46   0x004abe    program     static E:\c18v3.46\pic18-lt\cxx-framework\src\traditional\stdclib\vfprintf.c
                   __pa_5   0x00482e    program     static E:\c18v3.46\pic18-lt\cxx-framework\src\traditional\stdclib\vfprintf.c
                   __pa_6   0x00484a    program     static E:\c18v3.46\pic18-lt\cxx-framework\src\traditional\stdclib\vfprintf.c
                   __pa_7   0x004854    program     static E:\c18v3.46\pic18-lt\cxx-framework\src\traditional\stdclib\vfprintf.c
                   __pa_8   0x004860    program     static E:\c18v3.46\pic18-lt\cxx-framework\src\traditional\stdclib\vfprintf.c
                   __pa_9   0x004882    program     static E:\c18v3.46\pic18-lt\cxx-framework\src\traditional\stdclib\vfprintf.c
              __string_64   0x004e38    program     static C:\Users\pete\Desktop\Development\FiringSystemDdevelopment\PIC\HandControllerTriggerPortorCue\main2.c
              __string_65   0x004e2f    program     static C:\Users\pete\Desktop\Development\FiringSystemDdevelopment\PIC\HandControllerTriggerPortorCue\main2.c
              __string_66   0x004e1f    program     static C:\Users\pete\Desktop\Development\FiringSystemDdevelopment\PIC\HandControllerTriggerPortorCue\main2.c
              __string_67   0x004e13    program     static C:\Users\pete\Desktop\Development\FiringSystemDdevelopment\PIC\HandControllerTriggerPortorCue\main2.c
              __string_68   0x004e02    program     static C:\Users\pete\Desktop\Development\FiringSystemDdevelopment\PIC\HandControllerTriggerPortorCue\main2.c
              __string_69   0x004df5    program     static C:\Users\pete\Desktop\Development\FiringSystemDdevelopment\PIC\HandControllerTriggerPortorCue\main2.c
              __string_71   0x004de5    program     static C:\Users\pete\Desktop\Development\FiringSystemDdevelopment\PIC\HandControllerTriggerPortorCue\main2.c
              __string_72   0x004ddb    program     static C:\Users\pete\Desktop\Development\FiringSystemDdevelopment\PIC\HandControllerTriggerPortorCue\main2.c
              __string_73   0x004dd3    program     static C:\Users\pete\Desktop\Development\FiringSystemDdevelopment\PIC\HandControllerTriggerPortorCue\main2.c
              __string_74   0x004dc8    program     static C:\Users\pete\Desktop\Development\FiringSystemDdevelopment\PIC\HandControllerTriggerPortorCue\main2.c
              __string_75   0x004dbd    program     static C:\Users\pete\Desktop\Development\FiringSystemDdevelopment\PIC\HandControllerTriggerPortorCue\main2.c
              __string_76   0x004db2    program     static C:\Users\pete\Desktop\Development\FiringSystemDdevelopment\PIC\HandControllerTriggerPortorCue\main2.c
              __string_77   0x004da5    program     static C:\Users\pete\Desktop\Development\FiringSystemDdevelopment\PIC\HandControllerTriggerPortorCue\main2.c
              __string_78   0x004d93    program     static C:\Users\pete\Desktop\Development\FiringSystemDdevelopment\PIC\HandControllerTriggerPortorCue\main2.c
              __string_79   0x004d8e    program     static C:\Users\pete\Desktop\Development\FiringSystemDdevelopment\PIC\HandControllerTriggerPortorCue\main2.c
              __string_80   0x004d86    program     static C:\Users\pete\Desktop\Development\FiringSystemDdevelopment\PIC\HandControllerTriggerPortorCue\main2.c
              __string_81   0x004d81    program     static C:\Users\pete\Desktop\Development\FiringSystemDdevelopment\PIC\HandControllerTriggerPortorCue\main2.c
              __string_86   0x004d76    program     static C:\Users\pete\Desktop\Development\FiringSystemDdevelopment\PIC\HandControllerTriggerPortorCue\main2.c
              __string_87   0x004d6d    program     static C:\Users\pete\Desktop\Development\FiringSystemDdevelopment\PIC\HandControllerTriggerPortorCue\main2.c
              __string_88   0x004d5f    program     static C:\Users\pete\Desktop\Development\FiringSystemDdevelopment\PIC\HandControllerTriggerPortorCue\main2.c
              __string_89   0x004d56    program     static C:\Users\pete\Desktop\Development\FiringSystemDdevelopment\PIC\HandControllerTriggerPortorCue\main2.c
              __tmplbl_42   0x00497c    program     static                          
              __tmplbl_43   0x0047c4    program     static                          
              __tmplbl_44   0x0047aa    program     static                          
              __tmplbl_85   0x003efc    program     static                          
            __zero_memory   0x0054e4    program     extern E:\c18v3.46\pic18-lt\cxx-framework\src\traditional\proc\p18lf25k80.asm
                _do_cinit   0x005084    program     extern E:\c18v3.46\pic18-lt\cxx-framework\src\traditional\startup\c018i.c
                   _entry   0x000000    program     extern E:\c18v3.46\pic18-lt\cxx-framework\src\traditional\startup\c018i.c
                   _false   0x00538a    program     static                          
                 _startup   0x005504    program     extern E:\c18v3.46\pic18-lt\cxx-framework\src\traditional\startup\c018i.c
              _usart_putc   0x005520    program     extern E:\c18v3.46\pic18-lt\cxx-framework\src\pmc_common\USART\_usartpc.asm
               _user_putc   0x000006    program     extern E:\c18v3.46\pic18-lt\cxx-framework\src\traditional\stdclib\_user_putc.c
                      abs   0x001278    program     extern C:\Users\pete\Desktop\Development\FiringSystemDdevelopment\PIC\HandControllerTriggerPortorCue\cranwellP18F25K80.h
                     atoi   0x004e48    program     extern E:\c18v3.46\pic18-lt\cxx-framework\src\traditional\stdclib\atoi.asm
                compare_l   0x0054fa    program     static E:\c18v3.46\pic18-lt\cxx-framework\src\traditional\proc\p18lf25k80.asm
                copy_loop   0x0050f6    program     static                          
            copy_one_byte   0x0050fc    program     static                          
                     done   0x005120    program     static                          
             done_copying   0x00510a    program     static                          
                  endloop   0x0054ba    program     static                          
                     exit   0x0000fc    program     static                          
                    exit2   0x0000fe    program     static                          
                  isdigit   0x0054c0    program     extern E:\c18v3.46\pic18-lt\cxx-framework\src\traditional\stdclib\isdigit.asm
                     jEnd   0x004b0c    program     static E:\c18v3.46\pic18-lt\cxx-framework\src\traditional\stdclib\memcpy.asm
                     jEnd   0x004b50    program     static E:\c18v3.46\pic18-lt\cxx-framework\src\traditional\stdclib\memset.asm
                     jEnd   0x004f06    program     static E:\c18v3.46\pic18-lt\cxx-framework\src\traditional\stdclib\atoi.asm
                     jEnd   0x004d42    program     static E:\c18v3.46\pic18-lt\cxx-framework\src\traditional\stdclib\slenpgm.asm
                     jEnd   0x004c9a    program     static E:\c18v3.46\pic18-lt\cxx-framework\src\traditional\stdclib\strncmp.asm
                     jEnd   0x004bf6    program     static E:\c18v3.46\pic18-lt\cxx-framework\src\traditional\stdclib\strlen.asm
                     jEnd   0x004c48    program     static E:\c18v3.46\pic18-lt\cxx-framework\src\traditional\stdclib\strncat.asm
                     jEnd   0x004cfa    program     static E:\c18v3.46\pic18-lt\cxx-framework\src\traditional\stdclib\strncpy.asm
                 jEndLoop   0x004eee    program     static E:\c18v3.46\pic18-lt\cxx-framework\src\traditional\stdclib\atoi.asm
                    jLoop   0x004bec    program     static E:\c18v3.46\pic18-lt\cxx-framework\src\traditional\stdclib\strlen.asm
                    jLoop   0x004c26    program     static E:\c18v3.46\pic18-lt\cxx-framework\src\traditional\stdclib\strncat.asm
                    jLoop   0x004ea0    program     static E:\c18v3.46\pic18-lt\cxx-framework\src\traditional\stdclib\atoi.asm
                    jLoop   0x004bc2    program     static E:\c18v3.46\pic18-lt\cxx-framework\src\traditional\stdclib\strcpy.asm
                    jLoop   0x004af0    program     static E:\c18v3.46\pic18-lt\cxx-framework\src\traditional\stdclib\memcpy.asm
                    jLoop   0x004c7a    program     static E:\c18v3.46\pic18-lt\cxx-framework\src\traditional\stdclib\strncmp.asm
                    jLoop   0x004b32    program     static E:\c18v3.46\pic18-lt\cxx-framework\src\traditional\stdclib\memset.asm
                    jLoop   0x004b80    program     static E:\c18v3.46\pic18-lt\cxx-framework\src\traditional\stdclib\strcat.asm
                    jLoop   0x004cd8    program     static E:\c18v3.46\pic18-lt\cxx-framework\src\traditional\stdclib\strncpy.asm
                    jLoop   0x004d2a    program     static E:\c18v3.46\pic18-lt\cxx-framework\src\traditional\stdclib\slenpgm.asm
                   jMatch   0x0054e0    program     static E:\c18v3.46\pic18-lt\cxx-framework\src\traditional\stdclib\isdigit.asm
                 jNoMatch   0x0054e2    program     static E:\c18v3.46\pic18-lt\cxx-framework\src\traditional\stdclib\isdigit.asm
                jNullLoop   0x004c20    program     static E:\c18v3.46\pic18-lt\cxx-framework\src\traditional\stdclib\strncat.asm
                jNullLoop   0x004b7a    program     static E:\c18v3.46\pic18-lt\cxx-framework\src\traditional\stdclib\strcat.asm
                  jSkipWS   0x004e76    program     static E:\c18v3.46\pic18-lt\cxx-framework\src\traditional\stdclib\atoi.asm
                 jSkipWS1   0x004e88    program     static E:\c18v3.46\pic18-lt\cxx-framework\src\traditional\stdclib\atoi.asm
                    jTerm   0x004c46    program     static E:\c18v3.46\pic18-lt\cxx-framework\src\traditional\stdclib\strncat.asm
                 jTstSign   0x004e8c    program     static E:\c18v3.46\pic18-lt\cxx-framework\src\traditional\stdclib\atoi.asm
                jTstSign1   0x004e98    program     static E:\c18v3.46\pic18-lt\cxx-framework\src\traditional\stdclib\atoi.asm
                jTstSign2   0x004e9e    program     static E:\c18v3.46\pic18-lt\cxx-framework\src\traditional\stdclib\atoi.asm
                jTstSign3   0x004ea0    program     static E:\c18v3.46\pic18-lt\cxx-framework\src\traditional\stdclib\atoi.asm
                     loop   0x005356    program     static                          
                     loop   0x00549e    program     static                          
                     loop   0x005514    program     static                          
                     loop   0x005530    program     static E:\c18v3.46\pic18-lt\cxx-framework\src\pmc_common\USART\_usartpc.asm
                   loop_h   0x0054f2    program     static E:\c18v3.46\pic18-lt\cxx-framework\src\traditional\proc\p18lf25k80.asm
                   loop_l   0x0054fc    program     static E:\c18v3.46\pic18-lt\cxx-framework\src\traditional\proc\p18lf25k80.asm
                     main   0x0012c8    program     extern C:\Users\pete\Desktop\Development\FiringSystemDdevelopment\PIC\HandControllerTriggerPortorCue\main2.c
                   memcpy   0x004ac8    program     extern E:\c18v3.46\pic18-lt\cxx-framework\src\traditional\stdclib\memcpy.asm
                   memset   0x004b1e    program     extern E:\c18v3.46\pic18-lt\cxx-framework\src\traditional\stdclib\memset.asm
                     putc   0x005122    program     extern E:\c18v3.46\pic18-lt\cxx-framework\src\traditional\stdclib\putc.c
                 s_digits   0x005558    program     static E:\c18v3.46\pic18-lt\cxx-framework\src\traditional\stdclib\vfprintf.c
            s_put_n_chars   0x003ea6    program     static E:\c18v3.46\pic18-lt\cxx-framework\src\traditional\stdclib\vfprintf.c
                  sprintf   0x004f32    program     extern E:\c18v3.46\pic18-lt\cxx-framework\src\traditional\stdclib\sprintf.c
                   strcat   0x004b52    program     extern E:\c18v3.46\pic18-lt\cxx-framework\src\traditional\stdclib\strcat.asm
                   strcpy   0x004b9a    program     extern E:\c18v3.46\pic18-lt\cxx-framework\src\traditional\stdclib\strcpy.asm
                   strlen   0x004bdc    program     extern E:\c18v3.46\pic18-lt\cxx-framework\src\traditional\stdclib\strlen.asm
                strlenpgm   0x004d0c    program     extern E:\c18v3.46\pic18-lt\cxx-framework\src\traditional\stdclib\slenpgm.asm
                  strncat   0x004bf8    program     extern E:\c18v3.46\pic18-lt\cxx-framework\src\traditional\stdclib\strncat.asm
                  strncmp   0x004c5a    program     extern E:\c18v3.46\pic18-lt\cxx-framework\src\traditional\stdclib\strncmp.asm
                  strncpy   0x004cb0    program     extern E:\c18v3.46\pic18-lt\cxx-framework\src\traditional\stdclib\strncpy.asm
                     test   0x00509e    program     static                          
                 vfprintf   0x003ed2    program     extern E:\c18v3.46\pic18-lt\cxx-framework\src\traditional\stdclib\vfprintf.c
              vgets1USART   0x000152    program     extern C:\Users\pete\Desktop\Development\FiringSystemDdevelopment\PIC\HandControllerTriggerPortorCue\cranwellP18F25K80.h
              vputs1USART   0x0005a6    program     extern C:\Users\pete\Desktop\Development\FiringSystemDdevelopment\PIC\HandControllerTriggerPortorCue\cranwellP18F25K80.h
               zero_block   0x0054f2    program     static E:\c18v3.46\pic18-lt\cxx-framework\src\traditional\proc\p18lf25k80.asm
                      ACK   0x000bd0       data     static C:\Users\pete\Desktop\Development\FiringSystemDdevelopment\PIC\HandControllerTriggerPortorCue\main2.c
                   ADCON0   0x000fc2       data     extern E:\c18v3.46\pic18-lt\cxx-framework\src\traditional\proc\p18lf25k80.asm
               ADCON0bits   0x000fc2       data     extern E:\c18v3.46\pic18-lt\cxx-framework\src\traditional\proc\p18lf25k80.asm
                   ADCON1   0x000fc1       data     extern E:\c18v3.46\pic18-lt\cxx-framework\src\traditional\proc\p18lf25k80.asm
               ADCON1bits   0x000fc1       data     extern E:\c18v3.46\pic18-lt\cxx-framework\src\traditional\proc\p18lf25k80.asm
                   ADCON2   0x000fc0       data     extern E:\c18v3.46\pic18-lt\cxx-framework\src\traditional\proc\p18lf25k80.asm
               ADCON2bits   0x000fc0       data     extern E:\c18v3.46\pic18-lt\cxx-framework\src\traditional\proc\p18lf25k80.asm
                    ADRES   0x000fc3       data     extern E:\c18v3.46\pic18-lt\cxx-framework\src\traditional\proc\p18lf25k80.asm
                   ADRESH   0x000fc4       data     extern E:\c18v3.46\pic18-lt\cxx-framework\src\traditional\proc\p18lf25k80.asm
                   ADRESL   0x000fc3       data     extern E:\c18v3.46\pic18-lt\cxx-framework\src\traditional\proc\p18lf25k80.asm
                   ANCON0   0x000f5d       data     extern E:\c18v3.46\pic18-lt\cxx-framework\src\traditional\proc\p18lf25k80.asm
               ANCON0bits   0x000f5d       data     extern E:\c18v3.46\pic18-lt\cxx-framework\src\traditional\proc\p18lf25k80.asm
                   ANCON1   0x000f5c       data     extern E:\c18v3.46\pic18-lt\cxx-framework\src\traditional\proc\p18lf25k80.asm
               ANCON1bits   0x000f5c       data     extern E:\c18v3.46\pic18-lt\cxx-framework\src\traditional\proc\p18lf25k80.asm
                   AckMsg   0x000bae       data     static C:\Users\pete\Desktop\Development\FiringSystemDdevelopment\PIC\HandControllerTriggerPortorCue\main2.c
                      Arm   0x000ae4       data     static C:\Users\pete\Desktop\Development\FiringSystemDdevelopment\PIC\HandControllerTriggerPortorCue\main2.c
                   ArmMsg   0x000b71       data     static C:\Users\pete\Desktop\Development\FiringSystemDdevelopment\PIC\HandControllerTriggerPortorCue\main2.c
                    Armed   0x000bd2       data     static C:\Users\pete\Desktop\Development\FiringSystemDdevelopment\PIC\HandControllerTriggerPortorCue\main2.c
                    Ascii   0x000708       data     static C:\Users\pete\Desktop\Development\FiringSystemDdevelopment\PIC\HandControllerTriggerPortorCue\main2.c
                    B0CON   0x000e80       data     extern E:\c18v3.46\pic18-lt\cxx-framework\src\traditional\proc\p18lf25k80.asm
                B0CONbits   0x000e80       data     extern E:\c18v3.46\pic18-lt\cxx-framework\src\traditional\proc\p18lf25k80.asm
                     B0D0   0x000e86       data     extern E:\c18v3.46\pic18-lt\cxx-framework\src\traditional\proc\p18lf25k80.asm
                 B0D0bits   0x000e86       data     extern E:\c18v3.46\pic18-lt\cxx-framework\src\traditional\proc\p18lf25k80.asm
                     B0D1   0x000e87       data     extern E:\c18v3.46\pic18-lt\cxx-framework\src\traditional\proc\p18lf25k80.asm
                 B0D1bits   0x000e87       data     extern E:\c18v3.46\pic18-lt\cxx-framework\src\traditional\proc\p18lf25k80.asm
                     B0D2   0x000e88       data     extern E:\c18v3.46\pic18-lt\cxx-framework\src\traditional\proc\p18lf25k80.asm
                 B0D2bits   0x000e88       data     extern E:\c18v3.46\pic18-lt\cxx-framework\src\traditional\proc\p18lf25k80.asm
                     B0D3   0x000e89       data     extern E:\c18v3.46\pic18-lt\cxx-framework\src\traditional\proc\p18lf25k80.asm
                 B0D3bits   0x000e89       data     extern E:\c18v3.46\pic18-lt\cxx-framework\src\traditional\proc\p18lf25k80.asm
                     B0D4   0x000e8a       data     extern E:\c18v3.46\pic18-lt\cxx-framework\src\traditional\proc\p18lf25k80.asm
                 B0D4bits   0x000e8a       data     extern E:\c18v3.46\pic18-lt\cxx-framework\src\traditional\proc\p18lf25k80.asm
                     B0D5   0x000e8b       data     extern E:\c18v3.46\pic18-lt\cxx-framework\src\traditional\proc\p18lf25k80.asm
                 B0D5bits   0x000e8b       data     extern E:\c18v3.46\pic18-lt\cxx-framework\src\traditional\proc\p18lf25k80.asm
                     B0D6   0x000e8c       data     extern E:\c18v3.46\pic18-lt\cxx-framework\src\traditional\proc\p18lf25k80.asm
                 B0D6bits   0x000e8c       data     extern E:\c18v3.46\pic18-lt\cxx-framework\src\traditional\proc\p18lf25k80.asm
                     B0D7   0x000e8d       data     extern E:\c18v3.46\pic18-lt\cxx-framework\src\traditional\proc\p18lf25k80.asm
                 B0D7bits   0x000e8d       data     extern E:\c18v3.46\pic18-lt\cxx-framework\src\traditional\proc\p18lf25k80.asm
                    B0DLC   0x000e85       data     extern E:\c18v3.46\pic18-lt\cxx-framework\src\traditional\proc\p18lf25k80.asm
                B0DLCbits   0x000e85       data     extern E:\c18v3.46\pic18-lt\cxx-framework\src\traditional\proc\p18lf25k80.asm
                   B0EIDH   0x000e83       data     extern E:\c18v3.46\pic18-lt\cxx-framework\src\traditional\proc\p18lf25k80.asm
               B0EIDHbits   0x000e83       data     extern E:\c18v3.46\pic18-lt\cxx-framework\src\traditional\proc\p18lf25k80.asm
                   B0EIDL   0x000e84       data     extern E:\c18v3.46\pic18-lt\cxx-framework\src\traditional\proc\p18lf25k80.asm
               B0EIDLbits   0x000e84       data     extern E:\c18v3.46\pic18-lt\cxx-framework\src\traditional\proc\p18lf25k80.asm
                   B0SIDH   0x000e81       data     extern E:\c18v3.46\pic18-lt\cxx-framework\src\traditional\proc\p18lf25k80.asm
               B0SIDHbits   0x000e81       data     extern E:\c18v3.46\pic18-lt\cxx-framework\src\traditional\proc\p18lf25k80.asm
                   B0SIDL   0x000e82       data     extern E:\c18v3.46\pic18-lt\cxx-framework\src\traditional\proc\p18lf25k80.asm
               B0SIDLbits   0x000e82       data     extern E:\c18v3.46\pic18-lt\cxx-framework\src\traditional\proc\p18lf25k80.asm
                    B1CON   0x000e90       data     extern E:\c18v3.46\pic18-lt\cxx-framework\src\traditional\proc\p18lf25k80.asm
                B1CONbits   0x000e90       data     extern E:\c18v3.46\pic18-lt\cxx-framework\src\traditional\proc\p18lf25k80.asm
                     B1D0   0x000e96       data     extern E:\c18v3.46\pic18-lt\cxx-framework\src\traditional\proc\p18lf25k80.asm
                 B1D0bits   0x000e96       data     extern E:\c18v3.46\pic18-lt\cxx-framework\src\traditional\proc\p18lf25k80.asm
                     B1D1   0x000e97       data     extern E:\c18v3.46\pic18-lt\cxx-framework\src\traditional\proc\p18lf25k80.asm
                 B1D1bits   0x000e97       data     extern E:\c18v3.46\pic18-lt\cxx-framework\src\traditional\proc\p18lf25k80.asm
                     B1D2   0x000e98       data     extern E:\c18v3.46\pic18-lt\cxx-framework\src\traditional\proc\p18lf25k80.asm
                 B1D2bits   0x000e98       data     extern E:\c18v3.46\pic18-lt\cxx-framework\src\traditional\proc\p18lf25k80.asm
                     B1D3   0x000e99       data     extern E:\c18v3.46\pic18-lt\cxx-framework\src\traditional\proc\p18lf25k80.asm
                 B1D3bits   0x000e99       data     extern E:\c18v3.46\pic18-lt\cxx-framework\src\traditional\proc\p18lf25k80.asm
                     B1D4   0x000e9a       data     extern E:\c18v3.46\pic18-lt\cxx-framework\src\traditional\proc\p18lf25k80.asm
                 B1D4bits   0x000e9a       data     extern E:\c18v3.46\pic18-lt\cxx-framework\src\traditional\proc\p18lf25k80.asm
                     B1D5   0x000e9b       data     extern E:\c18v3.46\pic18-lt\cxx-framework\src\traditional\proc\p18lf25k80.asm
                 B1D5bits   0x000e9b       data     extern E:\c18v3.46\pic18-lt\cxx-framework\src\traditional\proc\p18lf25k80.asm
                     B1D6   0x000e9c       data     extern E:\c18v3.46\pic18-lt\cxx-framework\src\traditional\proc\p18lf25k80.asm
                 B1D6bits   0x000e9c       data     extern E:\c18v3.46\pic18-lt\cxx-framework\src\traditional\proc\p18lf25k80.asm
                     B1D7   0x000e9d       data     extern E:\c18v3.46\pic18-lt\cxx-framework\src\traditional\proc\p18lf25k80.asm
                 B1D7bits   0x000e9d       data     extern E:\c18v3.46\pic18-lt\cxx-framework\src\traditional\proc\p18lf25k80.asm
                    B1DLC   0x000e95       data     extern E:\c18v3.46\pic18-lt\cxx-framework\src\traditional\proc\p18lf25k80.asm
                B1DLCbits   0x000e95       data     extern E:\c18v3.46\pic18-lt\cxx-framework\src\traditional\proc\p18lf25k80.asm
                   B1EIDH   0x000e93       data     extern E:\c18v3.46\pic18-lt\cxx-framework\src\traditional\proc\p18lf25k80.asm
               B1EIDHbits   0x000e93       data     extern E:\c18v3.46\pic18-lt\cxx-framework\src\traditional\proc\p18lf25k80.asm
                   B1EIDL   0x000e94       data     extern E:\c18v3.46\pic18-lt\cxx-framework\src\traditional\proc\p18lf25k80.asm
               B1EIDLbits   0x000e94       data     extern E:\c18v3.46\pic18-lt\cxx-framework\src\traditional\proc\p18lf25k80.asm
                   B1SIDH   0x000e91       data     extern E:\c18v3.46\pic18-lt\cxx-framework\src\traditional\proc\p18lf25k80.asm
               B1SIDHbits   0x000e91       data     extern E:\c18v3.46\pic18-lt\cxx-framework\src\traditional\proc\p18lf25k80.asm
                   B1SIDL   0x000e92       data     extern E:\c18v3.46\pic18-lt\cxx-framework\src\traditional\proc\p18lf25k80.asm
               B1SIDLbits   0x000e92       data     extern E:\c18v3.46\pic18-lt\cxx-framework\src\traditional\proc\p18lf25k80.asm
                    B2CON   0x000ea0       data     extern E:\c18v3.46\pic18-lt\cxx-framework\src\traditional\proc\p18lf25k80.asm
                B2CONbits   0x000ea0       data     extern E:\c18v3.46\pic18-lt\cxx-framework\src\traditional\proc\p18lf25k80.asm
                     B2D0   0x000ea6       data     extern E:\c18v3.46\pic18-lt\cxx-framework\src\traditional\proc\p18lf25k80.asm
                 B2D0bits   0x000ea6       data     extern E:\c18v3.46\pic18-lt\cxx-framework\src\traditional\proc\p18lf25k80.asm
                     B2D1   0x000ea7       data     extern E:\c18v3.46\pic18-lt\cxx-framework\src\traditional\proc\p18lf25k80.asm
                 B2D1bits   0x000ea7       data     extern E:\c18v3.46\pic18-lt\cxx-framework\src\traditional\proc\p18lf25k80.asm
                     B2D2   0x000ea8       data     extern E:\c18v3.46\pic18-lt\cxx-framework\src\traditional\proc\p18lf25k80.asm
                 B2D2bits   0x000ea8       data     extern E:\c18v3.46\pic18-lt\cxx-framework\src\traditional\proc\p18lf25k80.asm
                     B2D3   0x000ea9       data     extern E:\c18v3.46\pic18-lt\cxx-framework\src\traditional\proc\p18lf25k80.asm
                 B2D3bits   0x000ea9       data     extern E:\c18v3.46\pic18-lt\cxx-framework\src\traditional\proc\p18lf25k80.asm
                     B2D4   0x000eaa       data     extern E:\c18v3.46\pic18-lt\cxx-framework\src\traditional\proc\p18lf25k80.asm
                 B2D4bits   0x000eaa       data     extern E:\c18v3.46\pic18-lt\cxx-framework\src\traditional\proc\p18lf25k80.asm
                     B2D5   0x000eab       data     extern E:\c18v3.46\pic18-lt\cxx-framework\src\traditional\proc\p18lf25k80.asm
                 B2D5bits   0x000eab       data     extern E:\c18v3.46\pic18-lt\cxx-framework\src\traditional\proc\p18lf25k80.asm
                     B2D6   0x000eac       data     extern E:\c18v3.46\pic18-lt\cxx-framework\src\traditional\proc\p18lf25k80.asm
                 B2D6bits   0x000eac       data     extern E:\c18v3.46\pic18-lt\cxx-framework\src\traditional\proc\p18lf25k80.asm
                     B2D7   0x000ead       data     extern E:\c18v3.46\pic18-lt\cxx-framework\src\traditional\proc\p18lf25k80.asm
                 B2D7bits   0x000ead       data     extern E:\c18v3.46\pic18-lt\cxx-framework\src\traditional\proc\p18lf25k80.asm
                    B2DLC   0x000ea5       data     extern E:\c18v3.46\pic18-lt\cxx-framework\src\traditional\proc\p18lf25k80.asm
                B2DLCbits   0x000ea5       data     extern E:\c18v3.46\pic18-lt\cxx-framework\src\traditional\proc\p18lf25k80.asm
                   B2EIDH   0x000ea3       data     extern E:\c18v3.46\pic18-lt\cxx-framework\src\traditional\proc\p18lf25k80.asm
               B2EIDHbits   0x000ea3       data     extern E:\c18v3.46\pic18-lt\cxx-framework\src\traditional\proc\p18lf25k80.asm
                   B2EIDL   0x000ea4       data     extern E:\c18v3.46\pic18-lt\cxx-framework\src\traditional\proc\p18lf25k80.asm
               B2EIDLbits   0x000ea4       data     extern E:\c18v3.46\pic18-lt\cxx-framework\src\traditional\proc\p18lf25k80.asm
                   B2SIDH   0x000ea1       data     extern E:\c18v3.46\pic18-lt\cxx-framework\src\traditional\proc\p18lf25k80.asm
               B2SIDHbits   0x000ea1       data     extern E:\c18v3.46\pic18-lt\cxx-framework\src\traditional\proc\p18lf25k80.asm
                   B2SIDL   0x000ea2       data     extern E:\c18v3.46\pic18-lt\cxx-framework\src\traditional\proc\p18lf25k80.asm
               B2SIDLbits   0x000ea2       data     extern E:\c18v3.46\pic18-lt\cxx-framework\src\traditional\proc\p18lf25k80.asm
                    B3CON   0x000eb0       data     extern E:\c18v3.46\pic18-lt\cxx-framework\src\traditional\proc\p18lf25k80.asm
                B3CONbits   0x000eb0       data     extern E:\c18v3.46\pic18-lt\cxx-framework\src\traditional\proc\p18lf25k80.asm
                     B3D0   0x000eb6       data     extern E:\c18v3.46\pic18-lt\cxx-framework\src\traditional\proc\p18lf25k80.asm
                 B3D0bits   0x000eb6       data     extern E:\c18v3.46\pic18-lt\cxx-framework\src\traditional\proc\p18lf25k80.asm
                     B3D1   0x000eb7       data     extern E:\c18v3.46\pic18-lt\cxx-framework\src\traditional\proc\p18lf25k80.asm
                 B3D1bits   0x000eb7       data     extern E:\c18v3.46\pic18-lt\cxx-framework\src\traditional\proc\p18lf25k80.asm
                     B3D2   0x000eb8       data     extern E:\c18v3.46\pic18-lt\cxx-framework\src\traditional\proc\p18lf25k80.asm
                 B3D2bits   0x000eb8       data     extern E:\c18v3.46\pic18-lt\cxx-framework\src\traditional\proc\p18lf25k80.asm
                     B3D3   0x000eb9       data     extern E:\c18v3.46\pic18-lt\cxx-framework\src\traditional\proc\p18lf25k80.asm
                 B3D3bits   0x000eb9       data     extern E:\c18v3.46\pic18-lt\cxx-framework\src\traditional\proc\p18lf25k80.asm
                     B3D4   0x000eba       data     extern E:\c18v3.46\pic18-lt\cxx-framework\src\traditional\proc\p18lf25k80.asm
                 B3D4bits   0x000eba       data     extern E:\c18v3.46\pic18-lt\cxx-framework\src\traditional\proc\p18lf25k80.asm
                     B3D5   0x000ebb       data     extern E:\c18v3.46\pic18-lt\cxx-framework\src\traditional\proc\p18lf25k80.asm
                 B3D5bits   0x000ebb       data     extern E:\c18v3.46\pic18-lt\cxx-framework\src\traditional\proc\p18lf25k80.asm
                     B3D6   0x000ebc       data     extern E:\c18v3.46\pic18-lt\cxx-framework\src\traditional\proc\p18lf25k80.asm
                 B3D6bits   0x000ebc       data     extern E:\c18v3.46\pic18-lt\cxx-framework\src\traditional\proc\p18lf25k80.asm
                     B3D7   0x000ebd       data     extern E:\c18v3.46\pic18-lt\cxx-framework\src\traditional\proc\p18lf25k80.asm
                 B3D7bits   0x000ebd       data     extern E:\c18v3.46\pic18-lt\cxx-framework\src\traditional\proc\p18lf25k80.asm
                    B3DLC   0x000eb5       data     extern E:\c18v3.46\pic18-lt\cxx-framework\src\traditional\proc\p18lf25k80.asm
                B3DLCbits   0x000eb5       data     extern E:\c18v3.46\pic18-lt\cxx-framework\src\traditional\proc\p18lf25k80.asm
                   B3EIDH   0x000eb3       data     extern E:\c18v3.46\pic18-lt\cxx-framework\src\traditional\proc\p18lf25k80.asm
               B3EIDHbits   0x000eb3       data     extern E:\c18v3.46\pic18-lt\cxx-framework\src\traditional\proc\p18lf25k80.asm
                   B3EIDL   0x000eb4       data     extern E:\c18v3.46\pic18-lt\cxx-framework\src\traditional\proc\p18lf25k80.asm
               B3EIDLbits   0x000eb4       data     extern E:\c18v3.46\pic18-lt\cxx-framework\src\traditional\proc\p18lf25k80.asm
                   B3SIDH   0x000eb1       data     extern E:\c18v3.46\pic18-lt\cxx-framework\src\traditional\proc\p18lf25k80.asm
               B3SIDHbits   0x000eb1       data     extern E:\c18v3.46\pic18-lt\cxx-framework\src\traditional\proc\p18lf25k80.asm
                   B3SIDL   0x000eb2       data     extern E:\c18v3.46\pic18-lt\cxx-framework\src\traditional\proc\p18lf25k80.asm
               B3SIDLbits   0x000eb2       data     extern E:\c18v3.46\pic18-lt\cxx-framework\src\traditional\proc\p18lf25k80.asm
                    B4CON   0x000ec0       data     extern E:\c18v3.46\pic18-lt\cxx-framework\src\traditional\proc\p18lf25k80.asm
                B4CONbits   0x000ec0       data     extern E:\c18v3.46\pic18-lt\cxx-framework\src\traditional\proc\p18lf25k80.asm
                     B4D0   0x000ec6       data     extern E:\c18v3.46\pic18-lt\cxx-framework\src\traditional\proc\p18lf25k80.asm
                 B4D0bits   0x000ec6       data     extern E:\c18v3.46\pic18-lt\cxx-framework\src\traditional\proc\p18lf25k80.asm
                     B4D1   0x000ec7       data     extern E:\c18v3.46\pic18-lt\cxx-framework\src\traditional\proc\p18lf25k80.asm
                 B4D1bits   0x000ec7       data     extern E:\c18v3.46\pic18-lt\cxx-framework\src\traditional\proc\p18lf25k80.asm
                     B4D2   0x000ec8       data     extern E:\c18v3.46\pic18-lt\cxx-framework\src\traditional\proc\p18lf25k80.asm
                 B4D2bits   0x000ec8       data     extern E:\c18v3.46\pic18-lt\cxx-framework\src\traditional\proc\p18lf25k80.asm
                     B4D3   0x000ec9       data     extern E:\c18v3.46\pic18-lt\cxx-framework\src\traditional\proc\p18lf25k80.asm
                 B4D3bits   0x000ec9       data     extern E:\c18v3.46\pic18-lt\cxx-framework\src\traditional\proc\p18lf25k80.asm
                     B4D4   0x000eca       data     extern E:\c18v3.46\pic18-lt\cxx-framework\src\traditional\proc\p18lf25k80.asm
                 B4D4bits   0x000eca       data     extern E:\c18v3.46\pic18-lt\cxx-framework\src\traditional\proc\p18lf25k80.asm
                     B4D5   0x000ecb       data     extern E:\c18v3.46\pic18-lt\cxx-framework\src\traditional\proc\p18lf25k80.asm
                 B4D5bits   0x000ecb       data     extern E:\c18v3.46\pic18-lt\cxx-framework\src\traditional\proc\p18lf25k80.asm
                     B4D6   0x000ecc       data     extern E:\c18v3.46\pic18-lt\cxx-framework\src\traditional\proc\p18lf25k80.asm
                 B4D6bits   0x000ecc       data     extern E:\c18v3.46\pic18-lt\cxx-framework\src\traditional\proc\p18lf25k80.asm
                     B4D7   0x000ecd       data     extern E:\c18v3.46\pic18-lt\cxx-framework\src\traditional\proc\p18lf25k80.asm
                 B4D7bits   0x000ecd       data     extern E:\c18v3.46\pic18-lt\cxx-framework\src\traditional\proc\p18lf25k80.asm
                    B4DLC   0x000ec5       data     extern E:\c18v3.46\pic18-lt\cxx-framework\src\traditional\proc\p18lf25k80.asm
                B4DLCbits   0x000ec5       data     extern E:\c18v3.46\pic18-lt\cxx-framework\src\traditional\proc\p18lf25k80.asm
                   B4EIDH   0x000ec3       data     extern E:\c18v3.46\pic18-lt\cxx-framework\src\traditional\proc\p18lf25k80.asm
               B4EIDHbits   0x000ec3       data     extern E:\c18v3.46\pic18-lt\cxx-framework\src\traditional\proc\p18lf25k80.asm
                   B4EIDL   0x000ec4       data     extern E:\c18v3.46\pic18-lt\cxx-framework\src\traditional\proc\p18lf25k80.asm
               B4EIDLbits   0x000ec4       data     extern E:\c18v3.46\pic18-lt\cxx-framework\src\traditional\proc\p18lf25k80.asm
                   B4SIDH   0x000ec1       data     extern E:\c18v3.46\pic18-lt\cxx-framework\src\traditional\proc\p18lf25k80.asm
               B4SIDHbits   0x000ec1       data     extern E:\c18v3.46\pic18-lt\cxx-framework\src\traditional\proc\p18lf25k80.asm
                   B4SIDL   0x000ec2       data     extern E:\c18v3.46\pic18-lt\cxx-framework\src\traditional\proc\p18lf25k80.asm
               B4SIDLbits   0x000ec2       data     extern E:\c18v3.46\pic18-lt\cxx-framework\src\traditional\proc\p18lf25k80.asm
                    B5CON   0x000ed0       data     extern E:\c18v3.46\pic18-lt\cxx-framework\src\traditional\proc\p18lf25k80.asm
                B5CONbits   0x000ed0       data     extern E:\c18v3.46\pic18-lt\cxx-framework\src\traditional\proc\p18lf25k80.asm
                     B5D0   0x000ed6       data     extern E:\c18v3.46\pic18-lt\cxx-framework\src\traditional\proc\p18lf25k80.asm
                 B5D0bits   0x000ed6       data     extern E:\c18v3.46\pic18-lt\cxx-framework\src\traditional\proc\p18lf25k80.asm
                     B5D1   0x000ed7       data     extern E:\c18v3.46\pic18-lt\cxx-framework\src\traditional\proc\p18lf25k80.asm
                 B5D1bits   0x000ed7       data     extern E:\c18v3.46\pic18-lt\cxx-framework\src\traditional\proc\p18lf25k80.asm
                     B5D2   0x000ed8       data     extern E:\c18v3.46\pic18-lt\cxx-framework\src\traditional\proc\p18lf25k80.asm
                 B5D2bits   0x000ed8       data     extern E:\c18v3.46\pic18-lt\cxx-framework\src\traditional\proc\p18lf25k80.asm
                     B5D3   0x000ed9       data     extern E:\c18v3.46\pic18-lt\cxx-framework\src\traditional\proc\p18lf25k80.asm
                 B5D3bits   0x000ed9       data     extern E:\c18v3.46\pic18-lt\cxx-framework\src\traditional\proc\p18lf25k80.asm
                     B5D4   0x000eda       data     extern E:\c18v3.46\pic18-lt\cxx-framework\src\traditional\proc\p18lf25k80.asm
                 B5D4bits   0x000eda       data     extern E:\c18v3.46\pic18-lt\cxx-framework\src\traditional\proc\p18lf25k80.asm
                     B5D5   0x000edb       data     extern E:\c18v3.46\pic18-lt\cxx-framework\src\traditional\proc\p18lf25k80.asm
                 B5D5bits   0x000edb       data     extern E:\c18v3.46\pic18-lt\cxx-framework\src\traditional\proc\p18lf25k80.asm
                     B5D6   0x000edc       data     extern E:\c18v3.46\pic18-lt\cxx-framework\src\traditional\proc\p18lf25k80.asm
                 B5D6bits   0x000edc       data     extern E:\c18v3.46\pic18-lt\cxx-framework\src\traditional\proc\p18lf25k80.asm
                     B5D7   0x000edd       data     extern E:\c18v3.46\pic18-lt\cxx-framework\src\traditional\proc\p18lf25k80.asm
                 B5D7bits   0x000edd       data     extern E:\c18v3.46\pic18-lt\cxx-framework\src\traditional\proc\p18lf25k80.asm
                    B5DLC   0x000ed5       data     extern E:\c18v3.46\pic18-lt\cxx-framework\src\traditional\proc\p18lf25k80.asm
                B5DLCbits   0x000ed5       data     extern E:\c18v3.46\pic18-lt\cxx-framework\src\traditional\proc\p18lf25k80.asm
                   B5EIDH   0x000ed3       data     extern E:\c18v3.46\pic18-lt\cxx-framework\src\traditional\proc\p18lf25k80.asm
               B5EIDHbits   0x000ed3       data     extern E:\c18v3.46\pic18-lt\cxx-framework\src\traditional\proc\p18lf25k80.asm
                   B5EIDL   0x000ed4       data     extern E:\c18v3.46\pic18-lt\cxx-framework\src\traditional\proc\p18lf25k80.asm
               B5EIDLbits   0x000ed4       data     extern E:\c18v3.46\pic18-lt\cxx-framework\src\traditional\proc\p18lf25k80.asm
                   B5SIDH   0x000ed1       data     extern E:\c18v3.46\pic18-lt\cxx-framework\src\traditional\proc\p18lf25k80.asm
               B5SIDHbits   0x000ed1       data     extern E:\c18v3.46\pic18-lt\cxx-framework\src\traditional\proc\p18lf25k80.asm
                   B5SIDL   0x000ed2       data     extern E:\c18v3.46\pic18-lt\cxx-framework\src\traditional\proc\p18lf25k80.asm
               B5SIDLbits   0x000ed2       data     extern E:\c18v3.46\pic18-lt\cxx-framework\src\traditional\proc\p18lf25k80.asm
                 BAUDCON1   0x000fa7       data     extern E:\c18v3.46\pic18-lt\cxx-framework\src\traditional\proc\p18lf25k80.asm
             BAUDCON1bits   0x000fa7       data     extern E:\c18v3.46\pic18-lt\cxx-framework\src\traditional\proc\p18lf25k80.asm
                 BAUDCON2   0x000fb9       data     extern E:\c18v3.46\pic18-lt\cxx-framework\src\traditional\proc\p18lf25k80.asm
             BAUDCON2bits   0x000fb9       data     extern E:\c18v3.46\pic18-lt\cxx-framework\src\traditional\proc\p18lf25k80.asm
                     BIE0   0x000e7e       data     extern E:\c18v3.46\pic18-lt\cxx-framework\src\traditional\proc\p18lf25k80.asm
                 BIE0bits   0x000e7e       data     extern E:\c18v3.46\pic18-lt\cxx-framework\src\traditional\proc\p18lf25k80.asm
                  BRGCON1   0x000e43       data     extern E:\c18v3.46\pic18-lt\cxx-framework\src\traditional\proc\p18lf25k80.asm
              BRGCON1bits   0x000e43       data     extern E:\c18v3.46\pic18-lt\cxx-framework\src\traditional\proc\p18lf25k80.asm
                  BRGCON2   0x000e44       data     extern E:\c18v3.46\pic18-lt\cxx-framework\src\traditional\proc\p18lf25k80.asm
              BRGCON2bits   0x000e44       data     extern E:\c18v3.46\pic18-lt\cxx-framework\src\traditional\proc\p18lf25k80.asm
                  BRGCON3   0x000e45       data     extern E:\c18v3.46\pic18-lt\cxx-framework\src\traditional\proc\p18lf25k80.asm
              BRGCON3bits   0x000e45       data     extern E:\c18v3.46\pic18-lt\cxx-framework\src\traditional\proc\p18lf25k80.asm
                    BSEL0   0x000e7d       data     extern E:\c18v3.46\pic18-lt\cxx-framework\src\traditional\proc\p18lf25k80.asm
                BSEL0bits   0x000e7d       data     extern E:\c18v3.46\pic18-lt\cxx-framework\src\traditional\proc\p18lf25k80.asm
                      BSR   0x000fe0       data     extern E:\c18v3.46\pic18-lt\cxx-framework\src\traditional\proc\p18lf25k80.asm
                  BSRbits   0x000fe0       data     extern E:\c18v3.46\pic18-lt\cxx-framework\src\traditional\proc\p18lf25k80.asm
                   BackOn   0x0000d4       data     extern C:\Users\pete\Desktop\Development\FiringSystemDdevelopment\PIC\HandControllerTriggerPortorCue\main2.c
                 BitCount   0x000762       data     extern C:\Users\pete\Desktop\Development\FiringSystemDdevelopment\PIC\HandControllerTriggerPortorCue\uartdata.asm
                    Blank   0x000bb6       data     static C:\Users\pete\Desktop\Development\FiringSystemDdevelopment\PIC\HandControllerTriggerPortorCue\main2.c
                  Buffer1   0x00076c       data     extern C:\Users\pete\Desktop\Development\FiringSystemDdevelopment\PIC\HandControllerTriggerPortorCue\uartdata.asm
                  Buffer2   0x00088e       data     extern C:\Users\pete\Desktop\Development\FiringSystemDdevelopment\PIC\HandControllerTriggerPortorCue\uartdata.asm
                   CANCON   0x000f6f       data     extern E:\c18v3.46\pic18-lt\cxx-framework\src\traditional\proc\p18lf25k80.asm
               CANCON_RO0   0x000f3f       data     extern E:\c18v3.46\pic18-lt\cxx-framework\src\traditional\proc\p18lf25k80.asm
           CANCON_RO0bits   0x000f3f       data     extern E:\c18v3.46\pic18-lt\cxx-framework\src\traditional\proc\p18lf25k80.asm
               CANCON_RO1   0x000f2f       data     extern E:\c18v3.46\pic18-lt\cxx-framework\src\traditional\proc\p18lf25k80.asm
           CANCON_RO1bits   0x000f2f       data     extern E:\c18v3.46\pic18-lt\cxx-framework\src\traditional\proc\p18lf25k80.asm
               CANCON_RO2   0x000f1f       data     extern E:\c18v3.46\pic18-lt\cxx-framework\src\traditional\proc\p18lf25k80.asm
           CANCON_RO2bits   0x000f1f       data     extern E:\c18v3.46\pic18-lt\cxx-framework\src\traditional\proc\p18lf25k80.asm
               CANCON_RO3   0x000f0f       data     extern E:\c18v3.46\pic18-lt\cxx-framework\src\traditional\proc\p18lf25k80.asm
           CANCON_RO3bits   0x000f0f       data     extern E:\c18v3.46\pic18-lt\cxx-framework\src\traditional\proc\p18lf25k80.asm
               CANCON_RO4   0x000edf       data     extern E:\c18v3.46\pic18-lt\cxx-framework\src\traditional\proc\p18lf25k80.asm
           CANCON_RO4bits   0x000edf       data     extern E:\c18v3.46\pic18-lt\cxx-framework\src\traditional\proc\p18lf25k80.asm
               CANCON_RO5   0x000ecf       data     extern E:\c18v3.46\pic18-lt\cxx-framework\src\traditional\proc\p18lf25k80.asm
           CANCON_RO5bits   0x000ecf       data     extern E:\c18v3.46\pic18-lt\cxx-framework\src\traditional\proc\p18lf25k80.asm
               CANCON_RO6   0x000ebf       data     extern E:\c18v3.46\pic18-lt\cxx-framework\src\traditional\proc\p18lf25k80.asm
           CANCON_RO6bits   0x000ebf       data     extern E:\c18v3.46\pic18-lt\cxx-framework\src\traditional\proc\p18lf25k80.asm
               CANCON_RO7   0x000eaf       data     extern E:\c18v3.46\pic18-lt\cxx-framework\src\traditional\proc\p18lf25k80.asm
           CANCON_RO7bits   0x000eaf       data     extern E:\c18v3.46\pic18-lt\cxx-framework\src\traditional\proc\p18lf25k80.asm
               CANCON_RO8   0x000e9f       data     extern E:\c18v3.46\pic18-lt\cxx-framework\src\traditional\proc\p18lf25k80.asm
           CANCON_RO8bits   0x000e9f       data     extern E:\c18v3.46\pic18-lt\cxx-framework\src\traditional\proc\p18lf25k80.asm
               CANCON_RO9   0x000e8f       data     extern E:\c18v3.46\pic18-lt\cxx-framework\src\traditional\proc\p18lf25k80.asm
           CANCON_RO9bits   0x000e8f       data     extern E:\c18v3.46\pic18-lt\cxx-framework\src\traditional\proc\p18lf25k80.asm
               CANCONbits   0x000f6f       data     extern E:\c18v3.46\pic18-lt\cxx-framework\src\traditional\proc\p18lf25k80.asm
                  CANSTAT   0x000f6e       data     extern E:\c18v3.46\pic18-lt\cxx-framework\src\traditional\proc\p18lf25k80.asm
              CANSTAT_RO0   0x000f3e       data     extern E:\c18v3.46\pic18-lt\cxx-framework\src\traditional\proc\p18lf25k80.asm
          CANSTAT_RO0bits   0x000f3e       data     extern E:\c18v3.46\pic18-lt\cxx-framework\src\traditional\proc\p18lf25k80.asm
              CANSTAT_RO1   0x000f2e       data     extern E:\c18v3.46\pic18-lt\cxx-framework\src\traditional\proc\p18lf25k80.asm
          CANSTAT_RO1bits   0x000f2e       data     extern E:\c18v3.46\pic18-lt\cxx-framework\src\traditional\proc\p18lf25k80.asm
              CANSTAT_RO2   0x000f1e       data     extern E:\c18v3.46\pic18-lt\cxx-framework\src\traditional\proc\p18lf25k80.asm
          CANSTAT_RO2bits   0x000f1e       data     extern E:\c18v3.46\pic18-lt\cxx-framework\src\traditional\proc\p18lf25k80.asm
              CANSTAT_RO3   0x000f0e       data     extern E:\c18v3.46\pic18-lt\cxx-framework\src\traditional\proc\p18lf25k80.asm
          CANSTAT_RO3bits   0x000f0e       data     extern E:\c18v3.46\pic18-lt\cxx-framework\src\traditional\proc\p18lf25k80.asm
              CANSTAT_RO4   0x000ede       data     extern E:\c18v3.46\pic18-lt\cxx-framework\src\traditional\proc\p18lf25k80.asm
          CANSTAT_RO4bits   0x000ede       data     extern E:\c18v3.46\pic18-lt\cxx-framework\src\traditional\proc\p18lf25k80.asm
              CANSTAT_RO5   0x000ece       data     extern E:\c18v3.46\pic18-lt\cxx-framework\src\traditional\proc\p18lf25k80.asm
          CANSTAT_RO5bits   0x000ece       data     extern E:\c18v3.46\pic18-lt\cxx-framework\src\traditional\proc\p18lf25k80.asm
              CANSTAT_RO6   0x000ebe       data     extern E:\c18v3.46\pic18-lt\cxx-framework\src\traditional\proc\p18lf25k80.asm
          CANSTAT_RO6bits   0x000ebe       data     extern E:\c18v3.46\pic18-lt\cxx-framework\src\traditional\proc\p18lf25k80.asm
              CANSTAT_RO7   0x000eae       data     extern E:\c18v3.46\pic18-lt\cxx-framework\src\traditional\proc\p18lf25k80.asm
          CANSTAT_RO7bits   0x000eae       data     extern E:\c18v3.46\pic18-lt\cxx-framework\src\traditional\proc\p18lf25k80.asm
              CANSTAT_RO8   0x000e9e       data     extern E:\c18v3.46\pic18-lt\cxx-framework\src\traditional\proc\p18lf25k80.asm
          CANSTAT_RO8bits   0x000e9e       data     extern E:\c18v3.46\pic18-lt\cxx-framework\src\traditional\proc\p18lf25k80.asm
              CANSTAT_RO9   0x000e8e       data     extern E:\c18v3.46\pic18-lt\cxx-framework\src\traditional\proc\p18lf25k80.asm
          CANSTAT_RO9bits   0x000e8e       data     extern E:\c18v3.46\pic18-lt\cxx-framework\src\traditional\proc\p18lf25k80.asm
              CANSTATbits   0x000f6e       data     extern E:\c18v3.46\pic18-lt\cxx-framework\src\traditional\proc\p18lf25k80.asm
                  CCP1CON   0x000fbb       data     extern E:\c18v3.46\pic18-lt\cxx-framework\src\traditional\proc\p18lf25k80.asm
              CCP1CONbits   0x000fbb       data     extern E:\c18v3.46\pic18-lt\cxx-framework\src\traditional\proc\p18lf25k80.asm
                  CCP2CON   0x000f50       data     extern E:\c18v3.46\pic18-lt\cxx-framework\src\traditional\proc\p18lf25k80.asm
              CCP2CONbits   0x000f50       data     extern E:\c18v3.46\pic18-lt\cxx-framework\src\traditional\proc\p18lf25k80.asm
                  CCP3CON   0x000f4d       data     extern E:\c18v3.46\pic18-lt\cxx-framework\src\traditional\proc\p18lf25k80.asm
              CCP3CONbits   0x000f4d       data     extern E:\c18v3.46\pic18-lt\cxx-framework\src\traditional\proc\p18lf25k80.asm
                  CCP4CON   0x000f4a       data     extern E:\c18v3.46\pic18-lt\cxx-framework\src\traditional\proc\p18lf25k80.asm
              CCP4CONbits   0x000f4a       data     extern E:\c18v3.46\pic18-lt\cxx-framework\src\traditional\proc\p18lf25k80.asm
                  CCP5CON   0x000f47       data     extern E:\c18v3.46\pic18-lt\cxx-framework\src\traditional\proc\p18lf25k80.asm
              CCP5CONbits   0x000f47       data     extern E:\c18v3.46\pic18-lt\cxx-framework\src\traditional\proc\p18lf25k80.asm
                    CCPR1   0x000fbc       data     extern E:\c18v3.46\pic18-lt\cxx-framework\src\traditional\proc\p18lf25k80.asm
                   CCPR1H   0x000fbd       data     extern E:\c18v3.46\pic18-lt\cxx-framework\src\traditional\proc\p18lf25k80.asm
                   CCPR1L   0x000fbc       data     extern E:\c18v3.46\pic18-lt\cxx-framework\src\traditional\proc\p18lf25k80.asm
                    CCPR2   0x000f51       data     extern E:\c18v3.46\pic18-lt\cxx-framework\src\traditional\proc\p18lf25k80.asm
                   CCPR2H   0x000f52       data     extern E:\c18v3.46\pic18-lt\cxx-framework\src\traditional\proc\p18lf25k80.asm
                   CCPR2L   0x000f51       data     extern E:\c18v3.46\pic18-lt\cxx-framework\src\traditional\proc\p18lf25k80.asm
                    CCPR3   0x000f4e       data     extern E:\c18v3.46\pic18-lt\cxx-framework\src\traditional\proc\p18lf25k80.asm
                   CCPR3H   0x000f4f       data     extern E:\c18v3.46\pic18-lt\cxx-framework\src\traditional\proc\p18lf25k80.asm
                   CCPR3L   0x000f4e       data     extern E:\c18v3.46\pic18-lt\cxx-framework\src\traditional\proc\p18lf25k80.asm
                    CCPR4   0x000f4b       data     extern E:\c18v3.46\pic18-lt\cxx-framework\src\traditional\proc\p18lf25k80.asm
                   CCPR4H   0x000f4c       data     extern E:\c18v3.46\pic18-lt\cxx-framework\src\traditional\proc\p18lf25k80.asm
                   CCPR4L   0x000f4b       data     extern E:\c18v3.46\pic18-lt\cxx-framework\src\traditional\proc\p18lf25k80.asm
                    CCPR5   0x000f48       data     extern E:\c18v3.46\pic18-lt\cxx-framework\src\traditional\proc\p18lf25k80.asm
                   CCPR5H   0x000f49       data     extern E:\c18v3.46\pic18-lt\cxx-framework\src\traditional\proc\p18lf25k80.asm
                   CCPR5L   0x000f48       data     extern E:\c18v3.46\pic18-lt\cxx-framework\src\traditional\proc\p18lf25k80.asm
                  CCPTMRS   0x000f99       data     extern E:\c18v3.46\pic18-lt\cxx-framework\src\traditional\proc\p18lf25k80.asm
              CCPTMRSbits   0x000f99       data     extern E:\c18v3.46\pic18-lt\cxx-framework\src\traditional\proc\p18lf25k80.asm
                     CHAR   0x000717       data     static C:\Users\pete\Desktop\Development\FiringSystemDdevelopment\PIC\HandControllerTriggerPortorCue\main2.c
                   CIOCON   0x000f70       data     extern E:\c18v3.46\pic18-lt\cxx-framework\src\traditional\proc\p18lf25k80.asm
               CIOCONbits   0x000f70       data     extern E:\c18v3.46\pic18-lt\cxx-framework\src\traditional\proc\p18lf25k80.asm
                      CLS   0x000b60       data     static C:\Users\pete\Desktop\Development\FiringSystemDdevelopment\PIC\HandControllerTriggerPortorCue\main2.c
                   CM1CON   0x000f5f       data     extern E:\c18v3.46\pic18-lt\cxx-framework\src\traditional\proc\p18lf25k80.asm
                  CM1CON1   0x000f5f       data     extern E:\c18v3.46\pic18-lt\cxx-framework\src\traditional\proc\p18lf25k80.asm
              CM1CON1bits   0x000f5f       data     extern E:\c18v3.46\pic18-lt\cxx-framework\src\traditional\proc\p18lf25k80.asm
               CM1CONbits   0x000f5f       data     extern E:\c18v3.46\pic18-lt\cxx-framework\src\traditional\proc\p18lf25k80.asm
                   CM2CON   0x000f5e       data     extern E:\c18v3.46\pic18-lt\cxx-framework\src\traditional\proc\p18lf25k80.asm
                  CM2CON1   0x000f5e       data     extern E:\c18v3.46\pic18-lt\cxx-framework\src\traditional\proc\p18lf25k80.asm
              CM2CON1bits   0x000f5e       data     extern E:\c18v3.46\pic18-lt\cxx-framework\src\traditional\proc\p18lf25k80.asm
               CM2CONbits   0x000f5e       data     extern E:\c18v3.46\pic18-lt\cxx-framework\src\traditional\proc\p18lf25k80.asm
                   CMSTAT   0x000fb4       data     extern E:\c18v3.46\pic18-lt\cxx-framework\src\traditional\proc\p18lf25k80.asm
                 CMSTATUS   0x000fb4       data     extern E:\c18v3.46\pic18-lt\cxx-framework\src\traditional\proc\p18lf25k80.asm
             CMSTATUSbits   0x000fb4       data     extern E:\c18v3.46\pic18-lt\cxx-framework\src\traditional\proc\p18lf25k80.asm
               CMSTATbits   0x000fb4       data     extern E:\c18v3.46\pic18-lt\cxx-framework\src\traditional\proc\p18lf25k80.asm
                      COL   0x000715       data     static C:\Users\pete\Desktop\Development\FiringSystemDdevelopment\PIC\HandControllerTriggerPortorCue\main2.c
                  COMSTAT   0x000f71       data     extern E:\c18v3.46\pic18-lt\cxx-framework\src\traditional\proc\p18lf25k80.asm
              COMSTATbits   0x000f71       data     extern E:\c18v3.46\pic18-lt\cxx-framework\src\traditional\proc\p18lf25k80.asm
                       CR   0x000b0d       data     static C:\Users\pete\Desktop\Development\FiringSystemDdevelopment\PIC\HandControllerTriggerPortorCue\main2.c
                     CRLF   0x000b3d       data     static C:\Users\pete\Desktop\Development\FiringSystemDdevelopment\PIC\HandControllerTriggerPortorCue\main2.c
                 CTMUCONH   0x000f55       data     extern E:\c18v3.46\pic18-lt\cxx-framework\src\traditional\proc\p18lf25k80.asm
             CTMUCONHbits   0x000f55       data     extern E:\c18v3.46\pic18-lt\cxx-framework\src\traditional\proc\p18lf25k80.asm
                 CTMUCONL   0x000f54       data     extern E:\c18v3.46\pic18-lt\cxx-framework\src\traditional\proc\p18lf25k80.asm
             CTMUCONLbits   0x000f54       data     extern E:\c18v3.46\pic18-lt\cxx-framework\src\traditional\proc\p18lf25k80.asm
                 CTMUICON   0x000f53       data     extern E:\c18v3.46\pic18-lt\cxx-framework\src\traditional\proc\p18lf25k80.asm
             CTMUICONbits   0x000f53       data     extern E:\c18v3.46\pic18-lt\cxx-framework\src\traditional\proc\p18lf25k80.asm
                   CUart1   0x0000aa       data     static C:\Users\pete\Desktop\Development\FiringSystemDdevelopment\PIC\HandControllerTriggerPortorCue\cranwellP18F25K80.h
                   CUart2   0x0000ad       data     static C:\Users\pete\Desktop\Development\FiringSystemDdevelopment\PIC\HandControllerTriggerPortorCue\cranwellP18F25K80.h
                   CVRCON   0x000fb5       data     extern E:\c18v3.46\pic18-lt\cxx-framework\src\traditional\proc\p18lf25k80.asm
               CVRCONbits   0x000fb5       data     extern E:\c18v3.46\pic18-lt\cxx-framework\src\traditional\proc\p18lf25k80.asm
                  CharOne   0x000b7e       data     static C:\Users\pete\Desktop\Development\FiringSystemDdevelopment\PIC\HandControllerTriggerPortorCue\main2.c
                  CharTwo   0x000b80       data     static C:\Users\pete\Desktop\Development\FiringSystemDdevelopment\PIC\HandControllerTriggerPortorCue\main2.c
                    Clear   0x0000d2       data     extern C:\Users\pete\Desktop\Development\FiringSystemDdevelopment\PIC\HandControllerTriggerPortorCue\main2.c
                 ClockCtr   0x000768       data     extern C:\Users\pete\Desktop\Development\FiringSystemDdevelopment\PIC\HandControllerTriggerPortorCue\uartdata.asm
                     Code   0x000aed       data     static C:\Users\pete\Desktop\Development\FiringSystemDdevelopment\PIC\HandControllerTriggerPortorCue\main2.c
                  Command   0x000adf       data     static C:\Users\pete\Desktop\Development\FiringSystemDdevelopment\PIC\HandControllerTriggerPortorCue\main2.c
               CommandMsg   0x000c18       data     static C:\Users\pete\Desktop\Development\FiringSystemDdevelopment\PIC\HandControllerTriggerPortorCue\main2.c
            ComputedDelay   0x000cb1       data     static C:\Users\pete\Desktop\Development\FiringSystemDdevelopment\PIC\HandControllerTriggerPortorCue\main2.c
                 CueFired   0x000ca9       data     static C:\Users\pete\Desktop\Development\FiringSystemDdevelopment\PIC\HandControllerTriggerPortorCue\main2.c
                 DataLen1   0x0000b0       data     static C:\Users\pete\Desktop\Development\FiringSystemDdevelopment\PIC\HandControllerTriggerPortorCue\cranwellP18F25K80.h
                 DataLen2   0x0000b2       data     static C:\Users\pete\Desktop\Development\FiringSystemDdevelopment\PIC\HandControllerTriggerPortorCue\cranwellP18F25K80.h
            DelayCounter1   0x000022       data     extern E:\c18v3.46\pic18-lt\cxx-framework\src\traditional\delays\delayd1.asm
                   Disarm   0x000ae7       data     static C:\Users\pete\Desktop\Development\FiringSystemDdevelopment\PIC\HandControllerTriggerPortorCue\main2.c
                  ECANCON   0x000f72       data     extern E:\c18v3.46\pic18-lt\cxx-framework\src\traditional\proc\p18lf25k80.asm
              ECANCONbits   0x000f72       data     extern E:\c18v3.46\pic18-lt\cxx-framework\src\traditional\proc\p18lf25k80.asm
                  ECCP1AS   0x000fbf       data     extern E:\c18v3.46\pic18-lt\cxx-framework\src\traditional\proc\p18lf25k80.asm
              ECCP1ASbits   0x000fbf       data     extern E:\c18v3.46\pic18-lt\cxx-framework\src\traditional\proc\p18lf25k80.asm
                 ECCP1CON   0x000fbb       data     extern E:\c18v3.46\pic18-lt\cxx-framework\src\traditional\proc\p18lf25k80.asm
             ECCP1CONbits   0x000fbb       data     extern E:\c18v3.46\pic18-lt\cxx-framework\src\traditional\proc\p18lf25k80.asm
                 ECCP1DEL   0x000fbe       data     extern E:\c18v3.46\pic18-lt\cxx-framework\src\traditional\proc\p18lf25k80.asm
             ECCP1DELbits   0x000fbe       data     extern E:\c18v3.46\pic18-lt\cxx-framework\src\traditional\proc\p18lf25k80.asm
                 ECCP2CON   0x000f50       data     extern E:\c18v3.46\pic18-lt\cxx-framework\src\traditional\proc\p18lf25k80.asm
             ECCP2CONbits   0x000f50       data     extern E:\c18v3.46\pic18-lt\cxx-framework\src\traditional\proc\p18lf25k80.asm
                    EEADR   0x000f74       data     extern E:\c18v3.46\pic18-lt\cxx-framework\src\traditional\proc\p18lf25k80.asm
                   EEADRH   0x000f75       data     extern E:\c18v3.46\pic18-lt\cxx-framework\src\traditional\proc\p18lf25k80.asm
                   EECON1   0x000f7f       data     extern E:\c18v3.46\pic18-lt\cxx-framework\src\traditional\proc\p18lf25k80.asm
               EECON1bits   0x000f7f       data     extern E:\c18v3.46\pic18-lt\cxx-framework\src\traditional\proc\p18lf25k80.asm
                   EECON2   0x000f7e       data     extern E:\c18v3.46\pic18-lt\cxx-framework\src\traditional\proc\p18lf25k80.asm
                   EEDATA   0x000f73       data     extern E:\c18v3.46\pic18-lt\cxx-framework\src\traditional\proc\p18lf25k80.asm
                 ErrorMsg   0x000b62       data     static C:\Users\pete\Desktop\Development\FiringSystemDdevelopment\PIC\HandControllerTriggerPortorCue\main2.c
                    Event   0x000bce       data     static C:\Users\pete\Desktop\Development\FiringSystemDdevelopment\PIC\HandControllerTriggerPortorCue\main2.c
                     FSR0   0x000fe9       data     extern E:\c18v3.46\pic18-lt\cxx-framework\src\traditional\proc\p18lf25k80.asm
                    FSR0H   0x000fea       data     extern E:\c18v3.46\pic18-lt\cxx-framework\src\traditional\proc\p18lf25k80.asm
               FSR0H_TEMP   0x0000b6       data     static C:\Users\pete\Desktop\Development\FiringSystemDdevelopment\PIC\HandControllerTriggerPortorCue\cranwellP18F25K80.h
                FSR0Hbits   0x000fea       data     extern E:\c18v3.46\pic18-lt\cxx-framework\src\traditional\proc\p18lf25k80.asm
                    FSR0L   0x000fe9       data     extern E:\c18v3.46\pic18-lt\cxx-framework\src\traditional\proc\p18lf25k80.asm
               FSR0L_TEMP   0x0000b8       data     static C:\Users\pete\Desktop\Development\FiringSystemDdevelopment\PIC\HandControllerTriggerPortorCue\cranwellP18F25K80.h
                     FSR1   0x000fe1       data     extern E:\c18v3.46\pic18-lt\cxx-framework\src\traditional\proc\p18lf25k80.asm
                    FSR1H   0x000fe2       data     extern E:\c18v3.46\pic18-lt\cxx-framework\src\traditional\proc\p18lf25k80.asm
               FSR1H_TEMP   0x0000ba       data     static C:\Users\pete\Desktop\Development\FiringSystemDdevelopment\PIC\HandControllerTriggerPortorCue\cranwellP18F25K80.h
                FSR1Hbits   0x000fe2       data     extern E:\c18v3.46\pic18-lt\cxx-framework\src\traditional\proc\p18lf25k80.asm
                    FSR1L   0x000fe1       data     extern E:\c18v3.46\pic18-lt\cxx-framework\src\traditional\proc\p18lf25k80.asm
               FSR1L_TEMP   0x0000bc       data     static C:\Users\pete\Desktop\Development\FiringSystemDdevelopment\PIC\HandControllerTriggerPortorCue\cranwellP18F25K80.h
                     FSR2   0x000fd9       data     extern E:\c18v3.46\pic18-lt\cxx-framework\src\traditional\proc\p18lf25k80.asm
                    FSR2H   0x000fda       data     extern E:\c18v3.46\pic18-lt\cxx-framework\src\traditional\proc\p18lf25k80.asm
                FSR2Hbits   0x000fda       data     extern E:\c18v3.46\pic18-lt\cxx-framework\src\traditional\proc\p18lf25k80.asm
                    FSR2L   0x000fd9       data     extern E:\c18v3.46\pic18-lt\cxx-framework\src\traditional\proc\p18lf25k80.asm
              FastPollMsg   0x000a7a       data     static C:\Users\pete\Desktop\Development\FiringSystemDdevelopment\PIC\HandControllerTriggerPortorCue\main2.c
                     Fire   0x000ae1       data     static C:\Users\pete\Desktop\Development\FiringSystemDdevelopment\PIC\HandControllerTriggerPortorCue\main2.c
                FirstUnit   0x000b31       data     static C:\Users\pete\Desktop\Development\FiringSystemDdevelopment\PIC\HandControllerTriggerPortorCue\main2.c
                  FullMsg   0x0005af       data     static C:\Users\pete\Desktop\Development\FiringSystemDdevelopment\PIC\HandControllerTriggerPortorCue\main2.c
             GlobalArmMsg   0x000a3e       data     static C:\Users\pete\Desktop\Development\FiringSystemDdevelopment\PIC\HandControllerTriggerPortorCue\main2.c
          GlobalDisarmMsg   0x000a52       data     static C:\Users\pete\Desktop\Development\FiringSystemDdevelopment\PIC\HandControllerTriggerPortorCue\main2.c
         GlobalFireCueMsg   0x000a66       data     static C:\Users\pete\Desktop\Development\FiringSystemDdevelopment\PIC\HandControllerTriggerPortorCue\main2.c
           GlobalLoadShow   0x000a2a       data     static C:\Users\pete\Desktop\Development\FiringSystemDdevelopment\PIC\HandControllerTriggerPortorCue\main2.c
          GlobalResetData   0x000a02       data     static C:\Users\pete\Desktop\Development\FiringSystemDdevelopment\PIC\HandControllerTriggerPortorCue\main2.c
                  HLVDCON   0x000fa8       data     extern E:\c18v3.46\pic18-lt\cxx-framework\src\traditional\proc\p18lf25k80.asm
              HLVDCONbits   0x000fa8       data     extern E:\c18v3.46\pic18-lt\cxx-framework\src\traditional\proc\p18lf25k80.asm
              HighestUnit   0x000718       data     static C:\Users\pete\Desktop\Development\FiringSystemDdevelopment\PIC\HandControllerTriggerPortorCue\main2.c
                    INDF0   0x000fef       data     extern E:\c18v3.46\pic18-lt\cxx-framework\src\traditional\proc\p18lf25k80.asm
                    INDF1   0x000fe7       data     extern E:\c18v3.46\pic18-lt\cxx-framework\src\traditional\proc\p18lf25k80.asm
                    INDF2   0x000fdf       data     extern E:\c18v3.46\pic18-lt\cxx-framework\src\traditional\proc\p18lf25k80.asm
                   INTCON   0x000ff2       data     extern E:\c18v3.46\pic18-lt\cxx-framework\src\traditional\proc\p18lf25k80.asm
                  INTCON1   0x000ff2       data     extern E:\c18v3.46\pic18-lt\cxx-framework\src\traditional\proc\p18lf25k80.asm
              INTCON1bits   0x000ff2       data     extern E:\c18v3.46\pic18-lt\cxx-framework\src\traditional\proc\p18lf25k80.asm
                  INTCON2   0x000ff1       data     extern E:\c18v3.46\pic18-lt\cxx-framework\src\traditional\proc\p18lf25k80.asm
              INTCON2bits   0x000ff1       data     extern E:\c18v3.46\pic18-lt\cxx-framework\src\traditional\proc\p18lf25k80.asm
                  INTCON3   0x000ff0       data     extern E:\c18v3.46\pic18-lt\cxx-framework\src\traditional\proc\p18lf25k80.asm
              INTCON3bits   0x000ff0       data     extern E:\c18v3.46\pic18-lt\cxx-framework\src\traditional\proc\p18lf25k80.asm
               INTCONbits   0x000ff2       data     extern E:\c18v3.46\pic18-lt\cxx-framework\src\traditional\proc\p18lf25k80.asm
                     IOCB   0x000f5a       data     extern E:\c18v3.46\pic18-lt\cxx-framework\src\traditional\proc\p18lf25k80.asm
                 IOCBbits   0x000f5a       data     extern E:\c18v3.46\pic18-lt\cxx-framework\src\traditional\proc\p18lf25k80.asm
                     IPR1   0x000f9f       data     extern E:\c18v3.46\pic18-lt\cxx-framework\src\traditional\proc\p18lf25k80.asm
                 IPR1bits   0x000f9f       data     extern E:\c18v3.46\pic18-lt\cxx-framework\src\traditional\proc\p18lf25k80.asm
                     IPR2   0x000fa2       data     extern E:\c18v3.46\pic18-lt\cxx-framework\src\traditional\proc\p18lf25k80.asm
                 IPR2bits   0x000fa2       data     extern E:\c18v3.46\pic18-lt\cxx-framework\src\traditional\proc\p18lf25k80.asm
                     IPR3   0x000fa5       data     extern E:\c18v3.46\pic18-lt\cxx-framework\src\traditional\proc\p18lf25k80.asm
                 IPR3bits   0x000fa5       data     extern E:\c18v3.46\pic18-lt\cxx-framework\src\traditional\proc\p18lf25k80.asm
                     IPR4   0x000fb8       data     extern E:\c18v3.46\pic18-lt\cxx-framework\src\traditional\proc\p18lf25k80.asm
                 IPR4bits   0x000fb8       data     extern E:\c18v3.46\pic18-lt\cxx-framework\src\traditional\proc\p18lf25k80.asm
                     IPR5   0x000f78       data     extern E:\c18v3.46\pic18-lt\cxx-framework\src\traditional\proc\p18lf25k80.asm
                 IPR5bits   0x000f78       data     extern E:\c18v3.46\pic18-lt\cxx-framework\src\traditional\proc\p18lf25k80.asm
                  IntTemp   0x000747       data     static C:\Users\pete\Desktop\Development\FiringSystemDdevelopment\PIC\HandControllerTriggerPortorCue\main2.c
                    KChar   0x00071b       data     static C:\Users\pete\Desktop\Development\FiringSystemDdevelopment\PIC\HandControllerTriggerPortorCue\main2.c
                  KbdChar   0x00071a       data     static C:\Users\pete\Desktop\Development\FiringSystemDdevelopment\PIC\HandControllerTriggerPortorCue\main2.c
                 KbdReset   0x000be3       data     static C:\Users\pete\Desktop\Development\FiringSystemDdevelopment\PIC\HandControllerTriggerPortorCue\main2.c
                      Key   0x000193       data     extern C:\Users\pete\Desktop\Development\FiringSystemDdevelopment\PIC\HandControllerTriggerPortorCue\main2.c
                     Key2   0x000194       data     extern C:\Users\pete\Desktop\Development\FiringSystemDdevelopment\PIC\HandControllerTriggerPortorCue\main2.c
                   Keypad   0x000bd3       data     static C:\Users\pete\Desktop\Development\FiringSystemDdevelopment\PIC\HandControllerTriggerPortorCue\main2.c
                     LATA   0x000f89       data     extern E:\c18v3.46\pic18-lt\cxx-framework\src\traditional\proc\p18lf25k80.asm
                 LATAbits   0x000f89       data     extern E:\c18v3.46\pic18-lt\cxx-framework\src\traditional\proc\p18lf25k80.asm
                     LATB   0x000f8a       data     extern E:\c18v3.46\pic18-lt\cxx-framework\src\traditional\proc\p18lf25k80.asm
                 LATBbits   0x000f8a       data     extern E:\c18v3.46\pic18-lt\cxx-framework\src\traditional\proc\p18lf25k80.asm
                     LATC   0x000f8b       data     extern E:\c18v3.46\pic18-lt\cxx-framework\src\traditional\proc\p18lf25k80.asm
                 LATCbits   0x000f8b       data     extern E:\c18v3.46\pic18-lt\cxx-framework\src\traditional\proc\p18lf25k80.asm
                   LCDMsg   0x000af8       data     static C:\Users\pete\Desktop\Development\FiringSystemDdevelopment\PIC\HandControllerTriggerPortorCue\main2.c
                   LCDptr   0x000a00       data     extern C:\Users\pete\Desktop\Development\FiringSystemDdevelopment\PIC\HandControllerTriggerPortorCue\main2.c
                      Len   0x000753       data     static C:\Users\pete\Desktop\Development\FiringSystemDdevelopment\PIC\HandControllerTriggerPortorCue\main2.c
                      Len   0x00074b       data     static C:\Users\pete\Desktop\Development\FiringSystemDdevelopment\PIC\HandControllerTriggerPortorCue\main2.c
                      Len   0x0000c6       data     static C:\Users\pete\Desktop\Development\FiringSystemDdevelopment\PIC\HandControllerTriggerPortorCue\cranwellP18F25K80.h
                      Len   0x00073b       data     static C:\Users\pete\Desktop\Development\FiringSystemDdevelopment\PIC\HandControllerTriggerPortorCue\main2.c
                      Len   0x000739       data     static C:\Users\pete\Desktop\Development\FiringSystemDdevelopment\PIC\HandControllerTriggerPortorCue\main2.c
                      Len   0x000751       data     static C:\Users\pete\Desktop\Development\FiringSystemDdevelopment\PIC\HandControllerTriggerPortorCue\main2.c
                      Len   0x00074f       data     static C:\Users\pete\Desktop\Development\FiringSystemDdevelopment\PIC\HandControllerTriggerPortorCue\main2.c
                    Line2   0x000100       data     static C:\Users\pete\Desktop\Development\FiringSystemDdevelopment\PIC\HandControllerTriggerPortorCue\main2.c
              LoadShowMsg   0x000c28       data     static C:\Users\pete\Desktop\Development\FiringSystemDdevelopment\PIC\HandControllerTriggerPortorCue\main2.c
                    MSEL0   0x000e79       data     extern E:\c18v3.46\pic18-lt\cxx-framework\src\traditional\proc\p18lf25k80.asm
                MSEL0bits   0x000e79       data     extern E:\c18v3.46\pic18-lt\cxx-framework\src\traditional\proc\p18lf25k80.asm
                    MSEL1   0x000e7a       data     extern E:\c18v3.46\pic18-lt\cxx-framework\src\traditional\proc\p18lf25k80.asm
                MSEL1bits   0x000e7a       data     extern E:\c18v3.46\pic18-lt\cxx-framework\src\traditional\proc\p18lf25k80.asm
                    MSEL2   0x000e7b       data     extern E:\c18v3.46\pic18-lt\cxx-framework\src\traditional\proc\p18lf25k80.asm
                MSEL2bits   0x000e7b       data     extern E:\c18v3.46\pic18-lt\cxx-framework\src\traditional\proc\p18lf25k80.asm
                    MSEL3   0x000e7c       data     extern E:\c18v3.46\pic18-lt\cxx-framework\src\traditional\proc\p18lf25k80.asm
                MSEL3bits   0x000e7c       data     extern E:\c18v3.46\pic18-lt\cxx-framework\src\traditional\proc\p18lf25k80.asm
                      Msg   0x000be5       data     static C:\Users\pete\Desktop\Development\FiringSystemDdevelopment\PIC\HandControllerTriggerPortorCue\main2.c
                Msg1Ready   0x000764       data     extern C:\Users\pete\Desktop\Development\FiringSystemDdevelopment\PIC\HandControllerTriggerPortorCue\uartdata.asm
                Msg2Ready   0x000766       data     extern C:\Users\pete\Desktop\Development\FiringSystemDdevelopment\PIC\HandControllerTriggerPortorCue\uartdata.asm
                   NGStat   0x000b5d       data     static C:\Users\pete\Desktop\Development\FiringSystemDdevelopment\PIC\HandControllerTriggerPortorCue\main2.c
                      NGc   0x000bab       data     static C:\Users\pete\Desktop\Development\FiringSystemDdevelopment\PIC\HandControllerTriggerPortorCue\main2.c
                   NakMsg   0x000bb2       data     static C:\Users\pete\Desktop\Development\FiringSystemDdevelopment\PIC\HandControllerTriggerPortorCue\main2.c
              NoPianoStat   0x000b4b       data     static C:\Users\pete\Desktop\Development\FiringSystemDdevelopment\PIC\HandControllerTriggerPortorCue\main2.c
                NoShowMsg   0x000c80       data     static C:\Users\pete\Desktop\Development\FiringSystemDdevelopment\PIC\HandControllerTriggerPortorCue\main2.c
                  NumCues   0x00070e       data     static C:\Users\pete\Desktop\Development\FiringSystemDdevelopment\PIC\HandControllerTriggerPortorCue\main2.c
                NumEvents   0x00070c       data     static C:\Users\pete\Desktop\Development\FiringSystemDdevelopment\PIC\HandControllerTriggerPortorCue\main2.c
                    ODCON   0x000f91       data     extern E:\c18v3.46\pic18-lt\cxx-framework\src\traditional\proc\p18lf25k80.asm
                ODCONbits   0x000f91       data     extern E:\c18v3.46\pic18-lt\cxx-framework\src\traditional\proc\p18lf25k80.asm
                   OKStat   0x000b5a       data     static C:\Users\pete\Desktop\Development\FiringSystemDdevelopment\PIC\HandControllerTriggerPortorCue\main2.c
                      OKc   0x000ba8       data     static C:\Users\pete\Desktop\Development\FiringSystemDdevelopment\PIC\HandControllerTriggerPortorCue\main2.c
                   OSCCON   0x000fd3       data     extern E:\c18v3.46\pic18-lt\cxx-framework\src\traditional\proc\p18lf25k80.asm
                  OSCCON2   0x000fd2       data     extern E:\c18v3.46\pic18-lt\cxx-framework\src\traditional\proc\p18lf25k80.asm
              OSCCON2bits   0x000fd2       data     extern E:\c18v3.46\pic18-lt\cxx-framework\src\traditional\proc\p18lf25k80.asm
               OSCCONbits   0x000fd3       data     extern E:\c18v3.46\pic18-lt\cxx-framework\src\traditional\proc\p18lf25k80.asm
                  OSCTUNE   0x000f9b       data     extern E:\c18v3.46\pic18-lt\cxx-framework\src\traditional\proc\p18lf25k80.asm
              OSCTUNEbits   0x000f9b       data     extern E:\c18v3.46\pic18-lt\cxx-framework\src\traditional\proc\p18lf25k80.asm
                  Offline   0x000c08       data     static C:\Users\pete\Desktop\Development\FiringSystemDdevelopment\PIC\HandControllerTriggerPortorCue\main2.c
                      One   0x000b68       data     static C:\Users\pete\Desktop\Development\FiringSystemDdevelopment\PIC\HandControllerTriggerPortorCue\main2.c
              OneWorkUnit   0x000b0f       data     static C:\Users\pete\Desktop\Development\FiringSystemDdevelopment\PIC\HandControllerTriggerPortorCue\main2.c
                  PADCFG1   0x000f56       data     extern E:\c18v3.46\pic18-lt\cxx-framework\src\traditional\proc\p18lf25k80.asm
              PADCFG1bits   0x000f56       data     extern E:\c18v3.46\pic18-lt\cxx-framework\src\traditional\proc\p18lf25k80.asm
                       PC   0x000ff9       data     extern E:\c18v3.46\pic18-lt\cxx-framework\src\traditional\proc\p18lf25k80.asm
                      PCL   0x000ff9       data     extern E:\c18v3.46\pic18-lt\cxx-framework\src\traditional\proc\p18lf25k80.asm
                   PCLATH   0x000ffa       data     extern E:\c18v3.46\pic18-lt\cxx-framework\src\traditional\proc\p18lf25k80.asm
                   PCLATU   0x000ffb       data     extern E:\c18v3.46\pic18-lt\cxx-framework\src\traditional\proc\p18lf25k80.asm
               PCLATUbits   0x000ffb       data     extern E:\c18v3.46\pic18-lt\cxx-framework\src\traditional\proc\p18lf25k80.asm
                     PIE1   0x000f9d       data     extern E:\c18v3.46\pic18-lt\cxx-framework\src\traditional\proc\p18lf25k80.asm
                 PIE1bits   0x000f9d       data     extern E:\c18v3.46\pic18-lt\cxx-framework\src\traditional\proc\p18lf25k80.asm
                     PIE2   0x000fa0       data     extern E:\c18v3.46\pic18-lt\cxx-framework\src\traditional\proc\p18lf25k80.asm
                 PIE2bits   0x000fa0       data     extern E:\c18v3.46\pic18-lt\cxx-framework\src\traditional\proc\p18lf25k80.asm
                     PIE3   0x000fa3       data     extern E:\c18v3.46\pic18-lt\cxx-framework\src\traditional\proc\p18lf25k80.asm
                 PIE3bits   0x000fa3       data     extern E:\c18v3.46\pic18-lt\cxx-framework\src\traditional\proc\p18lf25k80.asm
                     PIE4   0x000fb6       data     extern E:\c18v3.46\pic18-lt\cxx-framework\src\traditional\proc\p18lf25k80.asm
                 PIE4bits   0x000fb6       data     extern E:\c18v3.46\pic18-lt\cxx-framework\src\traditional\proc\p18lf25k80.asm
                     PIE5   0x000f76       data     extern E:\c18v3.46\pic18-lt\cxx-framework\src\traditional\proc\p18lf25k80.asm
                 PIE5bits   0x000f76       data     extern E:\c18v3.46\pic18-lt\cxx-framework\src\traditional\proc\p18lf25k80.asm
                     PIR1   0x000f9e       data     extern E:\c18v3.46\pic18-lt\cxx-framework\src\traditional\proc\p18lf25k80.asm
                 PIR1bits   0x000f9e       data     extern E:\c18v3.46\pic18-lt\cxx-framework\src\traditional\proc\p18lf25k80.asm
                     PIR2   0x000fa1       data     extern E:\c18v3.46\pic18-lt\cxx-framework\src\traditional\proc\p18lf25k80.asm
                 PIR2bits   0x000fa1       data     extern E:\c18v3.46\pic18-lt\cxx-framework\src\traditional\proc\p18lf25k80.asm
                     PIR3   0x000fa4       data     extern E:\c18v3.46\pic18-lt\cxx-framework\src\traditional\proc\p18lf25k80.asm
                 PIR3bits   0x000fa4       data     extern E:\c18v3.46\pic18-lt\cxx-framework\src\traditional\proc\p18lf25k80.asm
                     PIR4   0x000fb7       data     extern E:\c18v3.46\pic18-lt\cxx-framework\src\traditional\proc\p18lf25k80.asm
                 PIR4bits   0x000fb7       data     extern E:\c18v3.46\pic18-lt\cxx-framework\src\traditional\proc\p18lf25k80.asm
                     PIR5   0x000f77       data     extern E:\c18v3.46\pic18-lt\cxx-framework\src\traditional\proc\p18lf25k80.asm
                 PIR5bits   0x000f77       data     extern E:\c18v3.46\pic18-lt\cxx-framework\src\traditional\proc\p18lf25k80.asm
                   PLUSW0   0x000feb       data     extern E:\c18v3.46\pic18-lt\cxx-framework\src\traditional\proc\p18lf25k80.asm
                   PLUSW1   0x000fe3       data     extern E:\c18v3.46\pic18-lt\cxx-framework\src\traditional\proc\p18lf25k80.asm
                   PLUSW2   0x000fdb       data     extern E:\c18v3.46\pic18-lt\cxx-framework\src\traditional\proc\p18lf25k80.asm
                     PMD0   0x000f59       data     extern E:\c18v3.46\pic18-lt\cxx-framework\src\traditional\proc\p18lf25k80.asm
                 PMD0bits   0x000f59       data     extern E:\c18v3.46\pic18-lt\cxx-framework\src\traditional\proc\p18lf25k80.asm
                     PMD1   0x000f58       data     extern E:\c18v3.46\pic18-lt\cxx-framework\src\traditional\proc\p18lf25k80.asm
                 PMD1bits   0x000f58       data     extern E:\c18v3.46\pic18-lt\cxx-framework\src\traditional\proc\p18lf25k80.asm
                     PMD2   0x000f57       data     extern E:\c18v3.46\pic18-lt\cxx-framework\src\traditional\proc\p18lf25k80.asm
                 PMD2bits   0x000f57       data     extern E:\c18v3.46\pic18-lt\cxx-framework\src\traditional\proc\p18lf25k80.asm
                    PORTA   0x000f80       data     extern E:\c18v3.46\pic18-lt\cxx-framework\src\traditional\proc\p18lf25k80.asm
                PORTAbits   0x000f80       data     extern E:\c18v3.46\pic18-lt\cxx-framework\src\traditional\proc\p18lf25k80.asm
                    PORTB   0x000f81       data     extern E:\c18v3.46\pic18-lt\cxx-framework\src\traditional\proc\p18lf25k80.asm
               PORTBValue   0x000712       data     static C:\Users\pete\Desktop\Development\FiringSystemDdevelopment\PIC\HandControllerTriggerPortorCue\main2.c
                PORTBbits   0x000f81       data     extern E:\c18v3.46\pic18-lt\cxx-framework\src\traditional\proc\p18lf25k80.asm
                    PORTC   0x000f82       data     extern E:\c18v3.46\pic18-lt\cxx-framework\src\traditional\proc\p18lf25k80.asm
                PORTCbits   0x000f82       data     extern E:\c18v3.46\pic18-lt\cxx-framework\src\traditional\proc\p18lf25k80.asm
                    PORTE   0x000f84       data     extern E:\c18v3.46\pic18-lt\cxx-framework\src\traditional\proc\p18lf25k80.asm
                PORTEbits   0x000f84       data     extern E:\c18v3.46\pic18-lt\cxx-framework\src\traditional\proc\p18lf25k80.asm
                 POSTDEC0   0x000fed       data     extern E:\c18v3.46\pic18-lt\cxx-framework\src\traditional\proc\p18lf25k80.asm
                 POSTDEC1   0x000fe5       data     extern E:\c18v3.46\pic18-lt\cxx-framework\src\traditional\proc\p18lf25k80.asm
                 POSTDEC2   0x000fdd       data     extern E:\c18v3.46\pic18-lt\cxx-framework\src\traditional\proc\p18lf25k80.asm
                 POSTINC0   0x000fee       data     extern E:\c18v3.46\pic18-lt\cxx-framework\src\traditional\proc\p18lf25k80.asm
                 POSTINC1   0x000fe6       data     extern E:\c18v3.46\pic18-lt\cxx-framework\src\traditional\proc\p18lf25k80.asm
                 POSTINC2   0x000fde       data     extern E:\c18v3.46\pic18-lt\cxx-framework\src\traditional\proc\p18lf25k80.asm
                      PR2   0x000fcb       data     extern E:\c18v3.46\pic18-lt\cxx-framework\src\traditional\proc\p18lf25k80.asm
                      PR4   0x000fa9       data     extern E:\c18v3.46\pic18-lt\cxx-framework\src\traditional\proc\p18lf25k80.asm
                  PREINC0   0x000fec       data     extern E:\c18v3.46\pic18-lt\cxx-framework\src\traditional\proc\p18lf25k80.asm
                  PREINC1   0x000fe4       data     extern E:\c18v3.46\pic18-lt\cxx-framework\src\traditional\proc\p18lf25k80.asm
                  PREINC2   0x000fdc       data     extern E:\c18v3.46\pic18-lt\cxx-framework\src\traditional\proc\p18lf25k80.asm
                     PROD   0x000ff3       data     extern E:\c18v3.46\pic18-lt\cxx-framework\src\traditional\proc\p18lf25k80.asm
                    PRODH   0x000ff4       data     extern E:\c18v3.46\pic18-lt\cxx-framework\src\traditional\proc\p18lf25k80.asm
                    PRODL   0x000ff3       data     extern E:\c18v3.46\pic18-lt\cxx-framework\src\traditional\proc\p18lf25k80.asm
                 PSTR1CON   0x000f9c       data     extern E:\c18v3.46\pic18-lt\cxx-framework\src\traditional\proc\p18lf25k80.asm
             PSTR1CONbits   0x000f9c       data     extern E:\c18v3.46\pic18-lt\cxx-framework\src\traditional\proc\p18lf25k80.asm
                  PWM1CON   0x000fbe       data     extern E:\c18v3.46\pic18-lt\cxx-framework\src\traditional\proc\p18lf25k80.asm
              PWM1CONbits   0x000fbe       data     extern E:\c18v3.46\pic18-lt\cxx-framework\src\traditional\proc\p18lf25k80.asm
                    Pedal   0x000707       data     static C:\Users\pete\Desktop\Development\FiringSystemDdevelopment\PIC\HandControllerTriggerPortorCue\main2.c
               PedalError   0x000b9a       data     static C:\Users\pete\Desktop\Development\FiringSystemDdevelopment\PIC\HandControllerTriggerPortorCue\main2.c
                    Piano   0x000bcd       data     static C:\Users\pete\Desktop\Development\FiringSystemDdevelopment\PIC\HandControllerTriggerPortorCue\main2.c
                PianoStat   0x000b45       data     static C:\Users\pete\Desktop\Development\FiringSystemDdevelopment\PIC\HandControllerTriggerPortorCue\main2.c
                     Port   0x000af3       data     static C:\Users\pete\Desktop\Development\FiringSystemDdevelopment\PIC\HandControllerTriggerPortorCue\main2.c
                    Port0   0x000b42       data     static C:\Users\pete\Desktop\Development\FiringSystemDdevelopment\PIC\HandControllerTriggerPortorCue\main2.c
               PortToFire   0x000735       data     static C:\Users\pete\Desktop\Development\FiringSystemDdevelopment\PIC\HandControllerTriggerPortorCue\main2.c
                       RC   0x00012c       data     static C:\Users\pete\Desktop\Development\FiringSystemDdevelopment\PIC\HandControllerTriggerPortorCue\main2.c
                     RCON   0x000fd0       data     extern E:\c18v3.46\pic18-lt\cxx-framework\src\traditional\proc\p18lf25k80.asm
                 RCONbits   0x000fd0       data     extern E:\c18v3.46\pic18-lt\cxx-framework\src\traditional\proc\p18lf25k80.asm
                    RCREG   0x000fae       data     extern E:\c18v3.46\pic18-lt\cxx-framework\src\traditional\proc\p18lf25k80.asm
                   RCREG1   0x000fae       data     extern E:\c18v3.46\pic18-lt\cxx-framework\src\traditional\proc\p18lf25k80.asm
                   RCREG2   0x000f7a       data     extern E:\c18v3.46\pic18-lt\cxx-framework\src\traditional\proc\p18lf25k80.asm
                    RCSTA   0x000fab       data     extern E:\c18v3.46\pic18-lt\cxx-framework\src\traditional\proc\p18lf25k80.asm
                   RCSTA1   0x000fab       data     extern E:\c18v3.46\pic18-lt\cxx-framework\src\traditional\proc\p18lf25k80.asm
               RCSTA1bits   0x000fab       data     extern E:\c18v3.46\pic18-lt\cxx-framework\src\traditional\proc\p18lf25k80.asm
                   RCSTA2   0x000fa6       data     extern E:\c18v3.46\pic18-lt\cxx-framework\src\traditional\proc\p18lf25k80.asm
               RCSTA2bits   0x000fa6       data     extern E:\c18v3.46\pic18-lt\cxx-framework\src\traditional\proc\p18lf25k80.asm
                RCSTAbits   0x000fab       data     extern E:\c18v3.46\pic18-lt\cxx-framework\src\traditional\proc\p18lf25k80.asm
                  REFOCON   0x000f9a       data     extern E:\c18v3.46\pic18-lt\cxx-framework\src\traditional\proc\p18lf25k80.asm
              REFOCONbits   0x000f9a       data     extern E:\c18v3.46\pic18-lt\cxx-framework\src\traditional\proc\p18lf25k80.asm
                      ROW   0x000713       data     static C:\Users\pete\Desktop\Development\FiringSystemDdevelopment\PIC\HandControllerTriggerPortorCue\main2.c
                  RXB0CON   0x000f60       data     extern E:\c18v3.46\pic18-lt\cxx-framework\src\traditional\proc\p18lf25k80.asm
              RXB0CONbits   0x000f60       data     extern E:\c18v3.46\pic18-lt\cxx-framework\src\traditional\proc\p18lf25k80.asm
                   RXB0D0   0x000f66       data     extern E:\c18v3.46\pic18-lt\cxx-framework\src\traditional\proc\p18lf25k80.asm
               RXB0D0bits   0x000f66       data     extern E:\c18v3.46\pic18-lt\cxx-framework\src\traditional\proc\p18lf25k80.asm
                   RXB0D1   0x000f67       data     extern E:\c18v3.46\pic18-lt\cxx-framework\src\traditional\proc\p18lf25k80.asm
               RXB0D1bits   0x000f67       data     extern E:\c18v3.46\pic18-lt\cxx-framework\src\traditional\proc\p18lf25k80.asm
                   RXB0D2   0x000f68       data     extern E:\c18v3.46\pic18-lt\cxx-framework\src\traditional\proc\p18lf25k80.asm
               RXB0D2bits   0x000f68       data     extern E:\c18v3.46\pic18-lt\cxx-framework\src\traditional\proc\p18lf25k80.asm
                   RXB0D3   0x000f69       data     extern E:\c18v3.46\pic18-lt\cxx-framework\src\traditional\proc\p18lf25k80.asm
               RXB0D3bits   0x000f69       data     extern E:\c18v3.46\pic18-lt\cxx-framework\src\traditional\proc\p18lf25k80.asm
                   RXB0D4   0x000f6a       data     extern E:\c18v3.46\pic18-lt\cxx-framework\src\traditional\proc\p18lf25k80.asm
               RXB0D4bits   0x000f6a       data     extern E:\c18v3.46\pic18-lt\cxx-framework\src\traditional\proc\p18lf25k80.asm
                   RXB0D5   0x000f6b       data     extern E:\c18v3.46\pic18-lt\cxx-framework\src\traditional\proc\p18lf25k80.asm
               RXB0D5bits   0x000f6b       data     extern E:\c18v3.46\pic18-lt\cxx-framework\src\traditional\proc\p18lf25k80.asm
                   RXB0D6   0x000f6c       data     extern E:\c18v3.46\pic18-lt\cxx-framework\src\traditional\proc\p18lf25k80.asm
               RXB0D6bits   0x000f6c       data     extern E:\c18v3.46\pic18-lt\cxx-framework\src\traditional\proc\p18lf25k80.asm
                   RXB0D7   0x000f6d       data     extern E:\c18v3.46\pic18-lt\cxx-framework\src\traditional\proc\p18lf25k80.asm
               RXB0D7bits   0x000f6d       data     extern E:\c18v3.46\pic18-lt\cxx-framework\src\traditional\proc\p18lf25k80.asm
                  RXB0DLC   0x000f65       data     extern E:\c18v3.46\pic18-lt\cxx-framework\src\traditional\proc\p18lf25k80.asm
              RXB0DLCbits   0x000f65       data     extern E:\c18v3.46\pic18-lt\cxx-framework\src\traditional\proc\p18lf25k80.asm
                 RXB0EIDH   0x000f63       data     extern E:\c18v3.46\pic18-lt\cxx-framework\src\traditional\proc\p18lf25k80.asm
             RXB0EIDHbits   0x000f63       data     extern E:\c18v3.46\pic18-lt\cxx-framework\src\traditional\proc\p18lf25k80.asm
                 RXB0EIDL   0x000f64       data     extern E:\c18v3.46\pic18-lt\cxx-framework\src\traditional\proc\p18lf25k80.asm
             RXB0EIDLbits   0x000f64       data     extern E:\c18v3.46\pic18-lt\cxx-framework\src\traditional\proc\p18lf25k80.asm
                 RXB0SIDH   0x000f61       data     extern E:\c18v3.46\pic18-lt\cxx-framework\src\traditional\proc\p18lf25k80.asm
             RXB0SIDHbits   0x000f61       data     extern E:\c18v3.46\pic18-lt\cxx-framework\src\traditional\proc\p18lf25k80.asm
                 RXB0SIDL   0x000f62       data     extern E:\c18v3.46\pic18-lt\cxx-framework\src\traditional\proc\p18lf25k80.asm
             RXB0SIDLbits   0x000f62       data     extern E:\c18v3.46\pic18-lt\cxx-framework\src\traditional\proc\p18lf25k80.asm
                  RXB1CON   0x000f30       data     extern E:\c18v3.46\pic18-lt\cxx-framework\src\traditional\proc\p18lf25k80.asm
              RXB1CONbits   0x000f30       data     extern E:\c18v3.46\pic18-lt\cxx-framework\src\traditional\proc\p18lf25k80.asm
                   RXB1D0   0x000f36       data     extern E:\c18v3.46\pic18-lt\cxx-framework\src\traditional\proc\p18lf25k80.asm
               RXB1D0bits   0x000f36       data     extern E:\c18v3.46\pic18-lt\cxx-framework\src\traditional\proc\p18lf25k80.asm
                   RXB1D1   0x000f37       data     extern E:\c18v3.46\pic18-lt\cxx-framework\src\traditional\proc\p18lf25k80.asm
               RXB1D1bits   0x000f37       data     extern E:\c18v3.46\pic18-lt\cxx-framework\src\traditional\proc\p18lf25k80.asm
                   RXB1D2   0x000f38       data     extern E:\c18v3.46\pic18-lt\cxx-framework\src\traditional\proc\p18lf25k80.asm
               RXB1D2bits   0x000f38       data     extern E:\c18v3.46\pic18-lt\cxx-framework\src\traditional\proc\p18lf25k80.asm
                   RXB1D3   0x000f39       data     extern E:\c18v3.46\pic18-lt\cxx-framework\src\traditional\proc\p18lf25k80.asm
               RXB1D3bits   0x000f39       data     extern E:\c18v3.46\pic18-lt\cxx-framework\src\traditional\proc\p18lf25k80.asm
                   RXB1D4   0x000f3a       data     extern E:\c18v3.46\pic18-lt\cxx-framework\src\traditional\proc\p18lf25k80.asm
               RXB1D4bits   0x000f3a       data     extern E:\c18v3.46\pic18-lt\cxx-framework\src\traditional\proc\p18lf25k80.asm
                   RXB1D5   0x000f3b       data     extern E:\c18v3.46\pic18-lt\cxx-framework\src\traditional\proc\p18lf25k80.asm
               RXB1D5bits   0x000f3b       data     extern E:\c18v3.46\pic18-lt\cxx-framework\src\traditional\proc\p18lf25k80.asm
                   RXB1D6   0x000f3c       data     extern E:\c18v3.46\pic18-lt\cxx-framework\src\traditional\proc\p18lf25k80.asm
               RXB1D6bits   0x000f3c       data     extern E:\c18v3.46\pic18-lt\cxx-framework\src\traditional\proc\p18lf25k80.asm
                   RXB1D7   0x000f3d       data     extern E:\c18v3.46\pic18-lt\cxx-framework\src\traditional\proc\p18lf25k80.asm
               RXB1D7bits   0x000f3d       data     extern E:\c18v3.46\pic18-lt\cxx-framework\src\traditional\proc\p18lf25k80.asm
                  RXB1DLC   0x000f35       data     extern E:\c18v3.46\pic18-lt\cxx-framework\src\traditional\proc\p18lf25k80.asm
              RXB1DLCbits   0x000f35       data     extern E:\c18v3.46\pic18-lt\cxx-framework\src\traditional\proc\p18lf25k80.asm
                 RXB1EIDH   0x000f33       data     extern E:\c18v3.46\pic18-lt\cxx-framework\src\traditional\proc\p18lf25k80.asm
             RXB1EIDHbits   0x000f33       data     extern E:\c18v3.46\pic18-lt\cxx-framework\src\traditional\proc\p18lf25k80.asm
                 RXB1EIDL   0x000f34       data     extern E:\c18v3.46\pic18-lt\cxx-framework\src\traditional\proc\p18lf25k80.asm
             RXB1EIDLbits   0x000f34       data     extern E:\c18v3.46\pic18-lt\cxx-framework\src\traditional\proc\p18lf25k80.asm
                 RXB1SIDH   0x000f31       data     extern E:\c18v3.46\pic18-lt\cxx-framework\src\traditional\proc\p18lf25k80.asm
             RXB1SIDHbits   0x000f31       data     extern E:\c18v3.46\pic18-lt\cxx-framework\src\traditional\proc\p18lf25k80.asm
                 RXB1SIDL   0x000f32       data     extern E:\c18v3.46\pic18-lt\cxx-framework\src\traditional\proc\p18lf25k80.asm
             RXB1SIDLbits   0x000f32       data     extern E:\c18v3.46\pic18-lt\cxx-framework\src\traditional\proc\p18lf25k80.asm
                 RXERRCNT   0x000e41       data     extern E:\c18v3.46\pic18-lt\cxx-framework\src\traditional\proc\p18lf25k80.asm
             RXERRCNTbits   0x000e41       data     extern E:\c18v3.46\pic18-lt\cxx-framework\src\traditional\proc\p18lf25k80.asm
                 RXF0EIDH   0x000ee2       data     extern E:\c18v3.46\pic18-lt\cxx-framework\src\traditional\proc\p18lf25k80.asm
             RXF0EIDHbits   0x000ee2       data     extern E:\c18v3.46\pic18-lt\cxx-framework\src\traditional\proc\p18lf25k80.asm
                 RXF0EIDL   0x000ee3       data     extern E:\c18v3.46\pic18-lt\cxx-framework\src\traditional\proc\p18lf25k80.asm
             RXF0EIDLbits   0x000ee3       data     extern E:\c18v3.46\pic18-lt\cxx-framework\src\traditional\proc\p18lf25k80.asm
                 RXF0SIDH   0x000ee0       data     extern E:\c18v3.46\pic18-lt\cxx-framework\src\traditional\proc\p18lf25k80.asm
             RXF0SIDHbits   0x000ee0       data     extern E:\c18v3.46\pic18-lt\cxx-framework\src\traditional\proc\p18lf25k80.asm
                 RXF0SIDL   0x000ee1       data     extern E:\c18v3.46\pic18-lt\cxx-framework\src\traditional\proc\p18lf25k80.asm
             RXF0SIDLbits   0x000ee1       data     extern E:\c18v3.46\pic18-lt\cxx-framework\src\traditional\proc\p18lf25k80.asm
                RXF10EIDH   0x000e5a       data     extern E:\c18v3.46\pic18-lt\cxx-framework\src\traditional\proc\p18lf25k80.asm
            RXF10EIDHbits   0x000e5a       data     extern E:\c18v3.46\pic18-lt\cxx-framework\src\traditional\proc\p18lf25k80.asm
                RXF10EIDL   0x000e5b       data     extern E:\c18v3.46\pic18-lt\cxx-framework\src\traditional\proc\p18lf25k80.asm
            RXF10EIDLbits   0x000e5b       data     extern E:\c18v3.46\pic18-lt\cxx-framework\src\traditional\proc\p18lf25k80.asm
                RXF10SIDH   0x000e58       data     extern E:\c18v3.46\pic18-lt\cxx-framework\src\traditional\proc\p18lf25k80.asm
            RXF10SIDHbits   0x000e58       data     extern E:\c18v3.46\pic18-lt\cxx-framework\src\traditional\proc\p18lf25k80.asm
                RXF10SIDL   0x000e59       data     extern E:\c18v3.46\pic18-lt\cxx-framework\src\traditional\proc\p18lf25k80.asm
            RXF10SIDLbits   0x000e59       data     extern E:\c18v3.46\pic18-lt\cxx-framework\src\traditional\proc\p18lf25k80.asm
                RXF11EIDH   0x000e5e       data     extern E:\c18v3.46\pic18-lt\cxx-framework\src\traditional\proc\p18lf25k80.asm
            RXF11EIDHbits   0x000e5e       data     extern E:\c18v3.46\pic18-lt\cxx-framework\src\traditional\proc\p18lf25k80.asm
                RXF11EIDL   0x000e5f       data     extern E:\c18v3.46\pic18-lt\cxx-framework\src\traditional\proc\p18lf25k80.asm
            RXF11EIDLbits   0x000e5f       data     extern E:\c18v3.46\pic18-lt\cxx-framework\src\traditional\proc\p18lf25k80.asm
                RXF11SIDH   0x000e5c       data     extern E:\c18v3.46\pic18-lt\cxx-framework\src\traditional\proc\p18lf25k80.asm
            RXF11SIDHbits   0x000e5c       data     extern E:\c18v3.46\pic18-lt\cxx-framework\src\traditional\proc\p18lf25k80.asm
                RXF11SIDL   0x000e5d       data     extern E:\c18v3.46\pic18-lt\cxx-framework\src\traditional\proc\p18lf25k80.asm
            RXF11SIDLbits   0x000e5d       data     extern E:\c18v3.46\pic18-lt\cxx-framework\src\traditional\proc\p18lf25k80.asm
                RXF12EIDH   0x000e62       data     extern E:\c18v3.46\pic18-lt\cxx-framework\src\traditional\proc\p18lf25k80.asm
            RXF12EIDHbits   0x000e62       data     extern E:\c18v3.46\pic18-lt\cxx-framework\src\traditional\proc\p18lf25k80.asm
                RXF12EIDL   0x000e63       data     extern E:\c18v3.46\pic18-lt\cxx-framework\src\traditional\proc\p18lf25k80.asm
            RXF12EIDLbits   0x000e63       data     extern E:\c18v3.46\pic18-lt\cxx-framework\src\traditional\proc\p18lf25k80.asm
                RXF12SIDH   0x000e60       data     extern E:\c18v3.46\pic18-lt\cxx-framework\src\traditional\proc\p18lf25k80.asm
            RXF12SIDHbits   0x000e60       data     extern E:\c18v3.46\pic18-lt\cxx-framework\src\traditional\proc\p18lf25k80.asm
                RXF12SIDL   0x000e61       data     extern E:\c18v3.46\pic18-lt\cxx-framework\src\traditional\proc\p18lf25k80.asm
            RXF12SIDLbits   0x000e61       data     extern E:\c18v3.46\pic18-lt\cxx-framework\src\traditional\proc\p18lf25k80.asm
                RXF13EIDH   0x000e66       data     extern E:\c18v3.46\pic18-lt\cxx-framework\src\traditional\proc\p18lf25k80.asm
            RXF13EIDHbits   0x000e66       data     extern E:\c18v3.46\pic18-lt\cxx-framework\src\traditional\proc\p18lf25k80.asm
                RXF13EIDL   0x000e67       data     extern E:\c18v3.46\pic18-lt\cxx-framework\src\traditional\proc\p18lf25k80.asm
            RXF13EIDLbits   0x000e67       data     extern E:\c18v3.46\pic18-lt\cxx-framework\src\traditional\proc\p18lf25k80.asm
                RXF13SIDH   0x000e64       data     extern E:\c18v3.46\pic18-lt\cxx-framework\src\traditional\proc\p18lf25k80.asm
            RXF13SIDHbits   0x000e64       data     extern E:\c18v3.46\pic18-lt\cxx-framework\src\traditional\proc\p18lf25k80.asm
                RXF13SIDL   0x000e65       data     extern E:\c18v3.46\pic18-lt\cxx-framework\src\traditional\proc\p18lf25k80.asm
            RXF13SIDLbits   0x000e65       data     extern E:\c18v3.46\pic18-lt\cxx-framework\src\traditional\proc\p18lf25k80.asm
                RXF14EIDH   0x000e6a       data     extern E:\c18v3.46\pic18-lt\cxx-framework\src\traditional\proc\p18lf25k80.asm
            RXF14EIDHbits   0x000e6a       data     extern E:\c18v3.46\pic18-lt\cxx-framework\src\traditional\proc\p18lf25k80.asm
                RXF14EIDL   0x000e6b       data     extern E:\c18v3.46\pic18-lt\cxx-framework\src\traditional\proc\p18lf25k80.asm
            RXF14EIDLbits   0x000e6b       data     extern E:\c18v3.46\pic18-lt\cxx-framework\src\traditional\proc\p18lf25k80.asm
                RXF14SIDH   0x000e68       data     extern E:\c18v3.46\pic18-lt\cxx-framework\src\traditional\proc\p18lf25k80.asm
            RXF14SIDHbits   0x000e68       data     extern E:\c18v3.46\pic18-lt\cxx-framework\src\traditional\proc\p18lf25k80.asm
                RXF14SIDL   0x000e69       data     extern E:\c18v3.46\pic18-lt\cxx-framework\src\traditional\proc\p18lf25k80.asm
            RXF14SIDLbits   0x000e69       data     extern E:\c18v3.46\pic18-lt\cxx-framework\src\traditional\proc\p18lf25k80.asm
                RXF15EIDH   0x000e6e       data     extern E:\c18v3.46\pic18-lt\cxx-framework\src\traditional\proc\p18lf25k80.asm
            RXF15EIDHbits   0x000e6e       data     extern E:\c18v3.46\pic18-lt\cxx-framework\src\traditional\proc\p18lf25k80.asm
                RXF15EIDL   0x000e6f       data     extern E:\c18v3.46\pic18-lt\cxx-framework\src\traditional\proc\p18lf25k80.asm
            RXF15EIDLbits   0x000e6f       data     extern E:\c18v3.46\pic18-lt\cxx-framework\src\traditional\proc\p18lf25k80.asm
                RXF15SIDH   0x000e6c       data     extern E:\c18v3.46\pic18-lt\cxx-framework\src\traditional\proc\p18lf25k80.asm
            RXF15SIDHbits   0x000e6c       data     extern E:\c18v3.46\pic18-lt\cxx-framework\src\traditional\proc\p18lf25k80.asm
                RXF15SIDL   0x000e6d       data     extern E:\c18v3.46\pic18-lt\cxx-framework\src\traditional\proc\p18lf25k80.asm
            RXF15SIDLbits   0x000e6d       data     extern E:\c18v3.46\pic18-lt\cxx-framework\src\traditional\proc\p18lf25k80.asm
                 RXF1EIDH   0x000ee6       data     extern E:\c18v3.46\pic18-lt\cxx-framework\src\traditional\proc\p18lf25k80.asm
             RXF1EIDHbits   0x000ee6       data     extern E:\c18v3.46\pic18-lt\cxx-framework\src\traditional\proc\p18lf25k80.asm
                 RXF1EIDL   0x000ee7       data     extern E:\c18v3.46\pic18-lt\cxx-framework\src\traditional\proc\p18lf25k80.asm
             RXF1EIDLbits   0x000ee7       data     extern E:\c18v3.46\pic18-lt\cxx-framework\src\traditional\proc\p18lf25k80.asm
                 RXF1SIDH   0x000ee4       data     extern E:\c18v3.46\pic18-lt\cxx-framework\src\traditional\proc\p18lf25k80.asm
             RXF1SIDHbits   0x000ee4       data     extern E:\c18v3.46\pic18-lt\cxx-framework\src\traditional\proc\p18lf25k80.asm
                 RXF1SIDL   0x000ee5       data     extern E:\c18v3.46\pic18-lt\cxx-framework\src\traditional\proc\p18lf25k80.asm
             RXF1SIDLbits   0x000ee5       data     extern E:\c18v3.46\pic18-lt\cxx-framework\src\traditional\proc\p18lf25k80.asm
                 RXF2EIDH   0x000eea       data     extern E:\c18v3.46\pic18-lt\cxx-framework\src\traditional\proc\p18lf25k80.asm
             RXF2EIDHbits   0x000eea       data     extern E:\c18v3.46\pic18-lt\cxx-framework\src\traditional\proc\p18lf25k80.asm
                 RXF2EIDL   0x000eeb       data     extern E:\c18v3.46\pic18-lt\cxx-framework\src\traditional\proc\p18lf25k80.asm
             RXF2EIDLbits   0x000eeb       data     extern E:\c18v3.46\pic18-lt\cxx-framework\src\traditional\proc\p18lf25k80.asm
                 RXF2SIDH   0x000ee8       data     extern E:\c18v3.46\pic18-lt\cxx-framework\src\traditional\proc\p18lf25k80.asm
             RXF2SIDHbits   0x000ee8       data     extern E:\c18v3.46\pic18-lt\cxx-framework\src\traditional\proc\p18lf25k80.asm
                 RXF2SIDL   0x000ee9       data     extern E:\c18v3.46\pic18-lt\cxx-framework\src\traditional\proc\p18lf25k80.asm
             RXF2SIDLbits   0x000ee9       data     extern E:\c18v3.46\pic18-lt\cxx-framework\src\traditional\proc\p18lf25k80.asm
                 RXF3EIDH   0x000eee       data     extern E:\c18v3.46\pic18-lt\cxx-framework\src\traditional\proc\p18lf25k80.asm
             RXF3EIDHbits   0x000eee       data     extern E:\c18v3.46\pic18-lt\cxx-framework\src\traditional\proc\p18lf25k80.asm
                 RXF3EIDL   0x000eef       data     extern E:\c18v3.46\pic18-lt\cxx-framework\src\traditional\proc\p18lf25k80.asm
             RXF3EIDLbits   0x000eef       data     extern E:\c18v3.46\pic18-lt\cxx-framework\src\traditional\proc\p18lf25k80.asm
                 RXF3SIDH   0x000eec       data     extern E:\c18v3.46\pic18-lt\cxx-framework\src\traditional\proc\p18lf25k80.asm
             RXF3SIDHbits   0x000eec       data     extern E:\c18v3.46\pic18-lt\cxx-framework\src\traditional\proc\p18lf25k80.asm
                 RXF3SIDL   0x000eed       data     extern E:\c18v3.46\pic18-lt\cxx-framework\src\traditional\proc\p18lf25k80.asm
             RXF3SIDLbits   0x000eed       data     extern E:\c18v3.46\pic18-lt\cxx-framework\src\traditional\proc\p18lf25k80.asm
                 RXF4EIDH   0x000ef2       data     extern E:\c18v3.46\pic18-lt\cxx-framework\src\traditional\proc\p18lf25k80.asm
             RXF4EIDHbits   0x000ef2       data     extern E:\c18v3.46\pic18-lt\cxx-framework\src\traditional\proc\p18lf25k80.asm
                 RXF4EIDL   0x000ef3       data     extern E:\c18v3.46\pic18-lt\cxx-framework\src\traditional\proc\p18lf25k80.asm
             RXF4EIDLbits   0x000ef3       data     extern E:\c18v3.46\pic18-lt\cxx-framework\src\traditional\proc\p18lf25k80.asm
                 RXF4SIDH   0x000ef0       data     extern E:\c18v3.46\pic18-lt\cxx-framework\src\traditional\proc\p18lf25k80.asm
             RXF4SIDHbits   0x000ef0       data     extern E:\c18v3.46\pic18-lt\cxx-framework\src\traditional\proc\p18lf25k80.asm
                 RXF4SIDL   0x000ef1       data     extern E:\c18v3.46\pic18-lt\cxx-framework\src\traditional\proc\p18lf25k80.asm
             RXF4SIDLbits   0x000ef1       data     extern E:\c18v3.46\pic18-lt\cxx-framework\src\traditional\proc\p18lf25k80.asm
                 RXF5EIDH   0x000ef6       data     extern E:\c18v3.46\pic18-lt\cxx-framework\src\traditional\proc\p18lf25k80.asm
             RXF5EIDHbits   0x000ef6       data     extern E:\c18v3.46\pic18-lt\cxx-framework\src\traditional\proc\p18lf25k80.asm
                 RXF5EIDL   0x000ef7       data     extern E:\c18v3.46\pic18-lt\cxx-framework\src\traditional\proc\p18lf25k80.asm
             RXF5EIDLbits   0x000ef7       data     extern E:\c18v3.46\pic18-lt\cxx-framework\src\traditional\proc\p18lf25k80.asm
                 RXF5SIDH   0x000ef4       data     extern E:\c18v3.46\pic18-lt\cxx-framework\src\traditional\proc\p18lf25k80.asm
             RXF5SIDHbits   0x000ef4       data     extern E:\c18v3.46\pic18-lt\cxx-framework\src\traditional\proc\p18lf25k80.asm
                 RXF5SIDL   0x000ef5       data     extern E:\c18v3.46\pic18-lt\cxx-framework\src\traditional\proc\p18lf25k80.asm
             RXF5SIDLbits   0x000ef5       data     extern E:\c18v3.46\pic18-lt\cxx-framework\src\traditional\proc\p18lf25k80.asm
                 RXF6EIDH   0x000e4a       data     extern E:\c18v3.46\pic18-lt\cxx-framework\src\traditional\proc\p18lf25k80.asm
             RXF6EIDHbits   0x000e4a       data     extern E:\c18v3.46\pic18-lt\cxx-framework\src\traditional\proc\p18lf25k80.asm
                 RXF6EIDL   0x000e4b       data     extern E:\c18v3.46\pic18-lt\cxx-framework\src\traditional\proc\p18lf25k80.asm
             RXF6EIDLbits   0x000e4b       data     extern E:\c18v3.46\pic18-lt\cxx-framework\src\traditional\proc\p18lf25k80.asm
                 RXF6SIDH   0x000e48       data     extern E:\c18v3.46\pic18-lt\cxx-framework\src\traditional\proc\p18lf25k80.asm
             RXF6SIDHbits   0x000e48       data     extern E:\c18v3.46\pic18-lt\cxx-framework\src\traditional\proc\p18lf25k80.asm
                 RXF6SIDL   0x000e49       data     extern E:\c18v3.46\pic18-lt\cxx-framework\src\traditional\proc\p18lf25k80.asm
             RXF6SIDLbits   0x000e49       data     extern E:\c18v3.46\pic18-lt\cxx-framework\src\traditional\proc\p18lf25k80.asm
                 RXF7EIDH   0x000e4e       data     extern E:\c18v3.46\pic18-lt\cxx-framework\src\traditional\proc\p18lf25k80.asm
             RXF7EIDHbits   0x000e4e       data     extern E:\c18v3.46\pic18-lt\cxx-framework\src\traditional\proc\p18lf25k80.asm
                 RXF7EIDL   0x000e4f       data     extern E:\c18v3.46\pic18-lt\cxx-framework\src\traditional\proc\p18lf25k80.asm
             RXF7EIDLbits   0x000e4f       data     extern E:\c18v3.46\pic18-lt\cxx-framework\src\traditional\proc\p18lf25k80.asm
                 RXF7SIDH   0x000e4c       data     extern E:\c18v3.46\pic18-lt\cxx-framework\src\traditional\proc\p18lf25k80.asm
             RXF7SIDHbits   0x000e4c       data     extern E:\c18v3.46\pic18-lt\cxx-framework\src\traditional\proc\p18lf25k80.asm
                 RXF7SIDL   0x000e4d       data     extern E:\c18v3.46\pic18-lt\cxx-framework\src\traditional\proc\p18lf25k80.asm
             RXF7SIDLbits   0x000e4d       data     extern E:\c18v3.46\pic18-lt\cxx-framework\src\traditional\proc\p18lf25k80.asm
                 RXF8EIDH   0x000e52       data     extern E:\c18v3.46\pic18-lt\cxx-framework\src\traditional\proc\p18lf25k80.asm
             RXF8EIDHbits   0x000e52       data     extern E:\c18v3.46\pic18-lt\cxx-framework\src\traditional\proc\p18lf25k80.asm
                 RXF8EIDL   0x000e53       data     extern E:\c18v3.46\pic18-lt\cxx-framework\src\traditional\proc\p18lf25k80.asm
             RXF8EIDLbits   0x000e53       data     extern E:\c18v3.46\pic18-lt\cxx-framework\src\traditional\proc\p18lf25k80.asm
                 RXF8SIDH   0x000e50       data     extern E:\c18v3.46\pic18-lt\cxx-framework\src\traditional\proc\p18lf25k80.asm
             RXF8SIDHbits   0x000e50       data     extern E:\c18v3.46\pic18-lt\cxx-framework\src\traditional\proc\p18lf25k80.asm
                 RXF8SIDL   0x000e51       data     extern E:\c18v3.46\pic18-lt\cxx-framework\src\traditional\proc\p18lf25k80.asm
             RXF8SIDLbits   0x000e51       data     extern E:\c18v3.46\pic18-lt\cxx-framework\src\traditional\proc\p18lf25k80.asm
                 RXF9EIDH   0x000e56       data     extern E:\c18v3.46\pic18-lt\cxx-framework\src\traditional\proc\p18lf25k80.asm
             RXF9EIDHbits   0x000e56       data     extern E:\c18v3.46\pic18-lt\cxx-framework\src\traditional\proc\p18lf25k80.asm
                 RXF9EIDL   0x000e57       data     extern E:\c18v3.46\pic18-lt\cxx-framework\src\traditional\proc\p18lf25k80.asm
             RXF9EIDLbits   0x000e57       data     extern E:\c18v3.46\pic18-lt\cxx-framework\src\traditional\proc\p18lf25k80.asm
                 RXF9SIDH   0x000e54       data     extern E:\c18v3.46\pic18-lt\cxx-framework\src\traditional\proc\p18lf25k80.asm
             RXF9SIDHbits   0x000e54       data     extern E:\c18v3.46\pic18-lt\cxx-framework\src\traditional\proc\p18lf25k80.asm
                 RXF9SIDL   0x000e55       data     extern E:\c18v3.46\pic18-lt\cxx-framework\src\traditional\proc\p18lf25k80.asm
             RXF9SIDLbits   0x000e55       data     extern E:\c18v3.46\pic18-lt\cxx-framework\src\traditional\proc\p18lf25k80.asm
                 RXFBCON0   0x000e71       data     extern E:\c18v3.46\pic18-lt\cxx-framework\src\traditional\proc\p18lf25k80.asm
             RXFBCON0bits   0x000e71       data     extern E:\c18v3.46\pic18-lt\cxx-framework\src\traditional\proc\p18lf25k80.asm
                 RXFBCON1   0x000e72       data     extern E:\c18v3.46\pic18-lt\cxx-framework\src\traditional\proc\p18lf25k80.asm
             RXFBCON1bits   0x000e72       data     extern E:\c18v3.46\pic18-lt\cxx-framework\src\traditional\proc\p18lf25k80.asm
                 RXFBCON2   0x000e73       data     extern E:\c18v3.46\pic18-lt\cxx-framework\src\traditional\proc\p18lf25k80.asm
             RXFBCON2bits   0x000e73       data     extern E:\c18v3.46\pic18-lt\cxx-framework\src\traditional\proc\p18lf25k80.asm
                 RXFBCON3   0x000e74       data     extern E:\c18v3.46\pic18-lt\cxx-framework\src\traditional\proc\p18lf25k80.asm
             RXFBCON3bits   0x000e74       data     extern E:\c18v3.46\pic18-lt\cxx-framework\src\traditional\proc\p18lf25k80.asm
                 RXFBCON4   0x000e75       data     extern E:\c18v3.46\pic18-lt\cxx-framework\src\traditional\proc\p18lf25k80.asm
             RXFBCON4bits   0x000e75       data     extern E:\c18v3.46\pic18-lt\cxx-framework\src\traditional\proc\p18lf25k80.asm
                 RXFBCON5   0x000e76       data     extern E:\c18v3.46\pic18-lt\cxx-framework\src\traditional\proc\p18lf25k80.asm
             RXFBCON5bits   0x000e76       data     extern E:\c18v3.46\pic18-lt\cxx-framework\src\traditional\proc\p18lf25k80.asm
                 RXFBCON6   0x000e77       data     extern E:\c18v3.46\pic18-lt\cxx-framework\src\traditional\proc\p18lf25k80.asm
             RXFBCON6bits   0x000e77       data     extern E:\c18v3.46\pic18-lt\cxx-framework\src\traditional\proc\p18lf25k80.asm
                 RXFBCON7   0x000e78       data     extern E:\c18v3.46\pic18-lt\cxx-framework\src\traditional\proc\p18lf25k80.asm
             RXFBCON7bits   0x000e78       data     extern E:\c18v3.46\pic18-lt\cxx-framework\src\traditional\proc\p18lf25k80.asm
                  RXFCON0   0x000e46       data     extern E:\c18v3.46\pic18-lt\cxx-framework\src\traditional\proc\p18lf25k80.asm
              RXFCON0bits   0x000e46       data     extern E:\c18v3.46\pic18-lt\cxx-framework\src\traditional\proc\p18lf25k80.asm
                  RXFCON1   0x000e47       data     extern E:\c18v3.46\pic18-lt\cxx-framework\src\traditional\proc\p18lf25k80.asm
              RXFCON1bits   0x000e47       data     extern E:\c18v3.46\pic18-lt\cxx-framework\src\traditional\proc\p18lf25k80.asm
                 RXM0EIDH   0x000efa       data     extern E:\c18v3.46\pic18-lt\cxx-framework\src\traditional\proc\p18lf25k80.asm
             RXM0EIDHbits   0x000efa       data     extern E:\c18v3.46\pic18-lt\cxx-framework\src\traditional\proc\p18lf25k80.asm
                 RXM0EIDL   0x000efb       data     extern E:\c18v3.46\pic18-lt\cxx-framework\src\traditional\proc\p18lf25k80.asm
             RXM0EIDLbits   0x000efb       data     extern E:\c18v3.46\pic18-lt\cxx-framework\src\traditional\proc\p18lf25k80.asm
                 RXM0SIDH   0x000ef8       data     extern E:\c18v3.46\pic18-lt\cxx-framework\src\traditional\proc\p18lf25k80.asm
             RXM0SIDHbits   0x000ef8       data     extern E:\c18v3.46\pic18-lt\cxx-framework\src\traditional\proc\p18lf25k80.asm
                 RXM0SIDL   0x000ef9       data     extern E:\c18v3.46\pic18-lt\cxx-framework\src\traditional\proc\p18lf25k80.asm
             RXM0SIDLbits   0x000ef9       data     extern E:\c18v3.46\pic18-lt\cxx-framework\src\traditional\proc\p18lf25k80.asm
                 RXM1EIDH   0x000efe       data     extern E:\c18v3.46\pic18-lt\cxx-framework\src\traditional\proc\p18lf25k80.asm
             RXM1EIDHbits   0x000efe       data     extern E:\c18v3.46\pic18-lt\cxx-framework\src\traditional\proc\p18lf25k80.asm
                 RXM1EIDL   0x000eff       data     extern E:\c18v3.46\pic18-lt\cxx-framework\src\traditional\proc\p18lf25k80.asm
             RXM1EIDLbits   0x000eff       data     extern E:\c18v3.46\pic18-lt\cxx-framework\src\traditional\proc\p18lf25k80.asm
                 RXM1SIDH   0x000efc       data     extern E:\c18v3.46\pic18-lt\cxx-framework\src\traditional\proc\p18lf25k80.asm
             RXM1SIDHbits   0x000efc       data     extern E:\c18v3.46\pic18-lt\cxx-framework\src\traditional\proc\p18lf25k80.asm
                 RXM1SIDL   0x000efd       data     extern E:\c18v3.46\pic18-lt\cxx-framework\src\traditional\proc\p18lf25k80.asm
             RXM1SIDLbits   0x000efd       data     extern E:\c18v3.46\pic18-lt\cxx-framework\src\traditional\proc\p18lf25k80.asm
               RadioReply   0x0006b0       data     static C:\Users\pete\Desktop\Development\FiringSystemDdevelopment\PIC\HandControllerTriggerPortorCue\main2.c
            Radioinstring   0x000b34       data     static C:\Users\pete\Desktop\Development\FiringSystemDdevelopment\PIC\HandControllerTriggerPortorCue\main2.c
           Radiooutstring   0x000b39       data     static C:\Users\pete\Desktop\Development\FiringSystemDdevelopment\PIC\HandControllerTriggerPortorCue\main2.c
              ReadyingMsg   0x000c35       data     static C:\Users\pete\Desktop\Development\FiringSystemDdevelopment\PIC\HandControllerTriggerPortorCue\main2.c
                RecResult   0x000115       data     static C:\Users\pete\Desktop\Development\FiringSystemDdevelopment\PIC\HandControllerTriggerPortorCue\main2.c
                    Reset   0x000adc       data     static C:\Users\pete\Desktop\Development\FiringSystemDdevelopment\PIC\HandControllerTriggerPortorCue\main2.c
                    Retry   0x000124       data     static C:\Users\pete\Desktop\Development\FiringSystemDdevelopment\PIC\HandControllerTriggerPortorCue\main2.c
                    SDFLC   0x000e70       data     extern E:\c18v3.46\pic18-lt\cxx-framework\src\traditional\proc\p18lf25k80.asm
                SDFLCbits   0x000e70       data     extern E:\c18v3.46\pic18-lt\cxx-framework\src\traditional\proc\p18lf25k80.asm
                     SIGN   0x000000       data     extern E:\c18v3.46\pic18-lt\cxx-framework\src\traditional\math\cmath18.asm
                   SLRCON   0x000f90       data     extern E:\c18v3.46\pic18-lt\cxx-framework\src\traditional\proc\p18lf25k80.asm
               SLRCONbits   0x000f90       data     extern E:\c18v3.46\pic18-lt\cxx-framework\src\traditional\proc\p18lf25k80.asm
                    SPBRG   0x000faf       data     extern E:\c18v3.46\pic18-lt\cxx-framework\src\traditional\proc\p18lf25k80.asm
                   SPBRG1   0x000faf       data     extern E:\c18v3.46\pic18-lt\cxx-framework\src\traditional\proc\p18lf25k80.asm
                   SPBRG2   0x000f7b       data     extern E:\c18v3.46\pic18-lt\cxx-framework\src\traditional\proc\p18lf25k80.asm
                  SPBRGH1   0x000f7d       data     extern E:\c18v3.46\pic18-lt\cxx-framework\src\traditional\proc\p18lf25k80.asm
                  SPBRGH2   0x000f7c       data     extern E:\c18v3.46\pic18-lt\cxx-framework\src\traditional\proc\p18lf25k80.asm
                   SSPADD   0x000fc8       data     extern E:\c18v3.46\pic18-lt\cxx-framework\src\traditional\proc\p18lf25k80.asm
               SSPADDbits   0x000fc8       data     extern E:\c18v3.46\pic18-lt\cxx-framework\src\traditional\proc\p18lf25k80.asm
                   SSPBUF   0x000fc9       data     extern E:\c18v3.46\pic18-lt\cxx-framework\src\traditional\proc\p18lf25k80.asm
                  SSPCON1   0x000fc6       data     extern E:\c18v3.46\pic18-lt\cxx-framework\src\traditional\proc\p18lf25k80.asm
              SSPCON1bits   0x000fc6       data     extern E:\c18v3.46\pic18-lt\cxx-framework\src\traditional\proc\p18lf25k80.asm
                  SSPCON2   0x000fc5       data     extern E:\c18v3.46\pic18-lt\cxx-framework\src\traditional\proc\p18lf25k80.asm
              SSPCON2bits   0x000fc5       data     extern E:\c18v3.46\pic18-lt\cxx-framework\src\traditional\proc\p18lf25k80.asm
                  SSPSTAT   0x000fc7       data     extern E:\c18v3.46\pic18-lt\cxx-framework\src\traditional\proc\p18lf25k80.asm
              SSPSTATbits   0x000fc7       data     extern E:\c18v3.46\pic18-lt\cxx-framework\src\traditional\proc\p18lf25k80.asm
                   STATUS   0x000fd8       data     extern E:\c18v3.46\pic18-lt\cxx-framework\src\traditional\proc\p18lf25k80.asm
               STATUSbits   0x000fd8       data     extern E:\c18v3.46\pic18-lt\cxx-framework\src\traditional\proc\p18lf25k80.asm
                   STKPTR   0x000ffc       data     extern E:\c18v3.46\pic18-lt\cxx-framework\src\traditional\proc\p18lf25k80.asm
               STKPTRbits   0x000ffc       data     extern E:\c18v3.46\pic18-lt\cxx-framework\src\traditional\proc\p18lf25k80.asm
                     Secs   0x000ca7       data     static C:\Users\pete\Desktop\Development\FiringSystemDdevelopment\PIC\HandControllerTriggerPortorCue\main2.c
                    Sense   0x000aea       data     static C:\Users\pete\Desktop\Development\FiringSystemDdevelopment\PIC\HandControllerTriggerPortorCue\main2.c
                   Serial   0x000bcc       data     static C:\Users\pete\Desktop\Development\FiringSystemDdevelopment\PIC\HandControllerTriggerPortorCue\main2.c
                    Show1   0x000be8       data     static C:\Users\pete\Desktop\Development\FiringSystemDdevelopment\PIC\HandControllerTriggerPortorCue\main2.c
                    Show2   0x000bec       data     static C:\Users\pete\Desktop\Development\FiringSystemDdevelopment\PIC\HandControllerTriggerPortorCue\main2.c
                    Show3   0x000bf0       data     static C:\Users\pete\Desktop\Development\FiringSystemDdevelopment\PIC\HandControllerTriggerPortorCue\main2.c
               ShowErrMsg   0x000c44       data     static C:\Users\pete\Desktop\Development\FiringSystemDdevelopment\PIC\HandControllerTriggerPortorCue\main2.c
                   ShowID   0x00071c       data     static C:\Users\pete\Desktop\Development\FiringSystemDdevelopment\PIC\HandControllerTriggerPortorCue\main2.c
                ShowOKMsg   0x000c52       data     static C:\Users\pete\Desktop\Development\FiringSystemDdevelopment\PIC\HandControllerTriggerPortorCue\main2.c
         SlowPollDelayMsg   0x000ace       data     static C:\Users\pete\Desktop\Development\FiringSystemDdevelopment\PIC\HandControllerTriggerPortorCue\main2.c
              SlowPollMsg   0x000aa4       data     static C:\Users\pete\Desktop\Development\FiringSystemDdevelopment\PIC\HandControllerTriggerPortorCue\main2.c
              SlowPollTOT   0x000191       data     static C:\Users\pete\Desktop\Development\FiringSystemDdevelopment\PIC\HandControllerTriggerPortorCue\main2.c
                    Start   0x000b2e       data     static C:\Users\pete\Desktop\Development\FiringSystemDdevelopment\PIC\HandControllerTriggerPortorCue\main2.c
                StartStat   0x000b54       data     static C:\Users\pete\Desktop\Development\FiringSystemDdevelopment\PIC\HandControllerTriggerPortorCue\main2.c
              StartingMsg   0x000bf8       data     static C:\Users\pete\Desktop\Development\FiringSystemDdevelopment\PIC\HandControllerTriggerPortorCue\main2.c
                   Status   0x0006e0       data     static C:\Users\pete\Desktop\Development\FiringSystemDdevelopment\PIC\HandControllerTriggerPortorCue\main2.c
             StatusErrMsg   0x000c61       data     static C:\Users\pete\Desktop\Development\FiringSystemDdevelopment\PIC\HandControllerTriggerPortorCue\main2.c
              StatusOKMsg   0x000c70       data     static C:\Users\pete\Desktop\Development\FiringSystemDdevelopment\PIC\HandControllerTriggerPortorCue\main2.c
                    T0CON   0x000fd5       data     extern E:\c18v3.46\pic18-lt\cxx-framework\src\traditional\proc\p18lf25k80.asm
                T0CONbits   0x000fd5       data     extern E:\c18v3.46\pic18-lt\cxx-framework\src\traditional\proc\p18lf25k80.asm
                    T1CON   0x000fcd       data     extern E:\c18v3.46\pic18-lt\cxx-framework\src\traditional\proc\p18lf25k80.asm
                T1CONbits   0x000fcd       data     extern E:\c18v3.46\pic18-lt\cxx-framework\src\traditional\proc\p18lf25k80.asm
                   T1GCON   0x000faa       data     extern E:\c18v3.46\pic18-lt\cxx-framework\src\traditional\proc\p18lf25k80.asm
               T1GCONbits   0x000faa       data     extern E:\c18v3.46\pic18-lt\cxx-framework\src\traditional\proc\p18lf25k80.asm
                    T2CON   0x000fca       data     extern E:\c18v3.46\pic18-lt\cxx-framework\src\traditional\proc\p18lf25k80.asm
                T2CONbits   0x000fca       data     extern E:\c18v3.46\pic18-lt\cxx-framework\src\traditional\proc\p18lf25k80.asm
                    T3CON   0x000fb1       data     extern E:\c18v3.46\pic18-lt\cxx-framework\src\traditional\proc\p18lf25k80.asm
                T3CONbits   0x000fb1       data     extern E:\c18v3.46\pic18-lt\cxx-framework\src\traditional\proc\p18lf25k80.asm
                   T3GCON   0x000fb0       data     extern E:\c18v3.46\pic18-lt\cxx-framework\src\traditional\proc\p18lf25k80.asm
               T3GCONbits   0x000fb0       data     extern E:\c18v3.46\pic18-lt\cxx-framework\src\traditional\proc\p18lf25k80.asm
                    T4CON   0x000f88       data     extern E:\c18v3.46\pic18-lt\cxx-framework\src\traditional\proc\p18lf25k80.asm
                T4CONbits   0x000f88       data     extern E:\c18v3.46\pic18-lt\cxx-framework\src\traditional\proc\p18lf25k80.asm
                   TABLAT   0x000ff5       data     extern E:\c18v3.46\pic18-lt\cxx-framework\src\traditional\proc\p18lf25k80.asm
                   TBLPTR   0x000ff6       data     extern E:\c18v3.46\pic18-lt\cxx-framework\src\traditional\proc\p18lf25k80.asm
                  TBLPTRH   0x000ff7       data     extern E:\c18v3.46\pic18-lt\cxx-framework\src\traditional\proc\p18lf25k80.asm
                  TBLPTRL   0x000ff6       data     extern E:\c18v3.46\pic18-lt\cxx-framework\src\traditional\proc\p18lf25k80.asm
                  TBLPTRU   0x000ff8       data     extern E:\c18v3.46\pic18-lt\cxx-framework\src\traditional\proc\p18lf25k80.asm
              TBLPTRUbits   0x000ff8       data     extern E:\c18v3.46\pic18-lt\cxx-framework\src\traditional\proc\p18lf25k80.asm
                    TMR0H   0x000fd7       data     extern E:\c18v3.46\pic18-lt\cxx-framework\src\traditional\proc\p18lf25k80.asm
                    TMR0L   0x000fd6       data     extern E:\c18v3.46\pic18-lt\cxx-framework\src\traditional\proc\p18lf25k80.asm
                    TMR1H   0x000fcf       data     extern E:\c18v3.46\pic18-lt\cxx-framework\src\traditional\proc\p18lf25k80.asm
                    TMR1L   0x000fce       data     extern E:\c18v3.46\pic18-lt\cxx-framework\src\traditional\proc\p18lf25k80.asm
                     TMR2   0x000fcc       data     extern E:\c18v3.46\pic18-lt\cxx-framework\src\traditional\proc\p18lf25k80.asm
                    TMR3H   0x000fb3       data     extern E:\c18v3.46\pic18-lt\cxx-framework\src\traditional\proc\p18lf25k80.asm
                    TMR3L   0x000fb2       data     extern E:\c18v3.46\pic18-lt\cxx-framework\src\traditional\proc\p18lf25k80.asm
                     TMR4   0x000f87       data     extern E:\c18v3.46\pic18-lt\cxx-framework\src\traditional\proc\p18lf25k80.asm
                      TOS   0x000ffd       data     extern E:\c18v3.46\pic18-lt\cxx-framework\src\traditional\proc\p18lf25k80.asm
                     TOSH   0x000ffe       data     extern E:\c18v3.46\pic18-lt\cxx-framework\src\traditional\proc\p18lf25k80.asm
                     TOSL   0x000ffd       data     extern E:\c18v3.46\pic18-lt\cxx-framework\src\traditional\proc\p18lf25k80.asm
                     TOSU   0x000fff       data     extern E:\c18v3.46\pic18-lt\cxx-framework\src\traditional\proc\p18lf25k80.asm
                 TOSUbits   0x000fff       data     extern E:\c18v3.46\pic18-lt\cxx-framework\src\traditional\proc\p18lf25k80.asm
                      TRC   0x000b40       data     static C:\Users\pete\Desktop\Development\FiringSystemDdevelopment\PIC\HandControllerTriggerPortorCue\main2.c
                    TRISA   0x000f92       data     extern E:\c18v3.46\pic18-lt\cxx-framework\src\traditional\proc\p18lf25k80.asm
                TRISAbits   0x000f92       data     extern E:\c18v3.46\pic18-lt\cxx-framework\src\traditional\proc\p18lf25k80.asm
                    TRISB   0x000f93       data     extern E:\c18v3.46\pic18-lt\cxx-framework\src\traditional\proc\p18lf25k80.asm
                TRISBbits   0x000f93       data     extern E:\c18v3.46\pic18-lt\cxx-framework\src\traditional\proc\p18lf25k80.asm
                    TRISC   0x000f94       data     extern E:\c18v3.46\pic18-lt\cxx-framework\src\traditional\proc\p18lf25k80.asm
                TRISCbits   0x000f94       data     extern E:\c18v3.46\pic18-lt\cxx-framework\src\traditional\proc\p18lf25k80.asm
                  TXB0CON   0x000f20       data     extern E:\c18v3.46\pic18-lt\cxx-framework\src\traditional\proc\p18lf25k80.asm
              TXB0CONbits   0x000f20       data     extern E:\c18v3.46\pic18-lt\cxx-framework\src\traditional\proc\p18lf25k80.asm
                   TXB0D0   0x000f26       data     extern E:\c18v3.46\pic18-lt\cxx-framework\src\traditional\proc\p18lf25k80.asm
               TXB0D0bits   0x000f26       data     extern E:\c18v3.46\pic18-lt\cxx-framework\src\traditional\proc\p18lf25k80.asm
                   TXB0D1   0x000f27       data     extern E:\c18v3.46\pic18-lt\cxx-framework\src\traditional\proc\p18lf25k80.asm
               TXB0D1bits   0x000f27       data     extern E:\c18v3.46\pic18-lt\cxx-framework\src\traditional\proc\p18lf25k80.asm
                   TXB0D2   0x000f28       data     extern E:\c18v3.46\pic18-lt\cxx-framework\src\traditional\proc\p18lf25k80.asm
               TXB0D2bits   0x000f28       data     extern E:\c18v3.46\pic18-lt\cxx-framework\src\traditional\proc\p18lf25k80.asm
                   TXB0D3   0x000f29       data     extern E:\c18v3.46\pic18-lt\cxx-framework\src\traditional\proc\p18lf25k80.asm
               TXB0D3bits   0x000f29       data     extern E:\c18v3.46\pic18-lt\cxx-framework\src\traditional\proc\p18lf25k80.asm
                   TXB0D4   0x000f2a       data     extern E:\c18v3.46\pic18-lt\cxx-framework\src\traditional\proc\p18lf25k80.asm
               TXB0D4bits   0x000f2a       data     extern E:\c18v3.46\pic18-lt\cxx-framework\src\traditional\proc\p18lf25k80.asm
                   TXB0D5   0x000f2b       data     extern E:\c18v3.46\pic18-lt\cxx-framework\src\traditional\proc\p18lf25k80.asm
               TXB0D5bits   0x000f2b       data     extern E:\c18v3.46\pic18-lt\cxx-framework\src\traditional\proc\p18lf25k80.asm
                   TXB0D6   0x000f2c       data     extern E:\c18v3.46\pic18-lt\cxx-framework\src\traditional\proc\p18lf25k80.asm
               TXB0D6bits   0x000f2c       data     extern E:\c18v3.46\pic18-lt\cxx-framework\src\traditional\proc\p18lf25k80.asm
                   TXB0D7   0x000f2d       data     extern E:\c18v3.46\pic18-lt\cxx-framework\src\traditional\proc\p18lf25k80.asm
               TXB0D7bits   0x000f2d       data     extern E:\c18v3.46\pic18-lt\cxx-framework\src\traditional\proc\p18lf25k80.asm
                  TXB0DLC   0x000f25       data     extern E:\c18v3.46\pic18-lt\cxx-framework\src\traditional\proc\p18lf25k80.asm
              TXB0DLCbits   0x000f25       data     extern E:\c18v3.46\pic18-lt\cxx-framework\src\traditional\proc\p18lf25k80.asm
                 TXB0EIDH   0x000f23       data     extern E:\c18v3.46\pic18-lt\cxx-framework\src\traditional\proc\p18lf25k80.asm
             TXB0EIDHbits   0x000f23       data     extern E:\c18v3.46\pic18-lt\cxx-framework\src\traditional\proc\p18lf25k80.asm
                 TXB0EIDL   0x000f24       data     extern E:\c18v3.46\pic18-lt\cxx-framework\src\traditional\proc\p18lf25k80.asm
             TXB0EIDLbits   0x000f24       data     extern E:\c18v3.46\pic18-lt\cxx-framework\src\traditional\proc\p18lf25k80.asm
                 TXB0SIDH   0x000f21       data     extern E:\c18v3.46\pic18-lt\cxx-framework\src\traditional\proc\p18lf25k80.asm
             TXB0SIDHbits   0x000f21       data     extern E:\c18v3.46\pic18-lt\cxx-framework\src\traditional\proc\p18lf25k80.asm
                 TXB0SIDL   0x000f22       data     extern E:\c18v3.46\pic18-lt\cxx-framework\src\traditional\proc\p18lf25k80.asm
             TXB0SIDLbits   0x000f22       data     extern E:\c18v3.46\pic18-lt\cxx-framework\src\traditional\proc\p18lf25k80.asm
                  TXB1CON   0x000f10       data     extern E:\c18v3.46\pic18-lt\cxx-framework\src\traditional\proc\p18lf25k80.asm
              TXB1CONbits   0x000f10       data     extern E:\c18v3.46\pic18-lt\cxx-framework\src\traditional\proc\p18lf25k80.asm
                   TXB1D0   0x000f16       data     extern E:\c18v3.46\pic18-lt\cxx-framework\src\traditional\proc\p18lf25k80.asm
               TXB1D0bits   0x000f16       data     extern E:\c18v3.46\pic18-lt\cxx-framework\src\traditional\proc\p18lf25k80.asm
                   TXB1D1   0x000f17       data     extern E:\c18v3.46\pic18-lt\cxx-framework\src\traditional\proc\p18lf25k80.asm
               TXB1D1bits   0x000f17       data     extern E:\c18v3.46\pic18-lt\cxx-framework\src\traditional\proc\p18lf25k80.asm
                   TXB1D2   0x000f18       data     extern E:\c18v3.46\pic18-lt\cxx-framework\src\traditional\proc\p18lf25k80.asm
               TXB1D2bits   0x000f18       data     extern E:\c18v3.46\pic18-lt\cxx-framework\src\traditional\proc\p18lf25k80.asm
                   TXB1D3   0x000f19       data     extern E:\c18v3.46\pic18-lt\cxx-framework\src\traditional\proc\p18lf25k80.asm
               TXB1D3bits   0x000f19       data     extern E:\c18v3.46\pic18-lt\cxx-framework\src\traditional\proc\p18lf25k80.asm
                   TXB1D4   0x000f1a       data     extern E:\c18v3.46\pic18-lt\cxx-framework\src\traditional\proc\p18lf25k80.asm
               TXB1D4bits   0x000f1a       data     extern E:\c18v3.46\pic18-lt\cxx-framework\src\traditional\proc\p18lf25k80.asm
                   TXB1D5   0x000f1b       data     extern E:\c18v3.46\pic18-lt\cxx-framework\src\traditional\proc\p18lf25k80.asm
               TXB1D5bits   0x000f1b       data     extern E:\c18v3.46\pic18-lt\cxx-framework\src\traditional\proc\p18lf25k80.asm
                   TXB1D6   0x000f1c       data     extern E:\c18v3.46\pic18-lt\cxx-framework\src\traditional\proc\p18lf25k80.asm
               TXB1D6bits   0x000f1c       data     extern E:\c18v3.46\pic18-lt\cxx-framework\src\traditional\proc\p18lf25k80.asm
                   TXB1D7   0x000f1d       data     extern E:\c18v3.46\pic18-lt\cxx-framework\src\traditional\proc\p18lf25k80.asm
               TXB1D7bits   0x000f1d       data     extern E:\c18v3.46\pic18-lt\cxx-framework\src\traditional\proc\p18lf25k80.asm
                  TXB1DLC   0x000f15       data     extern E:\c18v3.46\pic18-lt\cxx-framework\src\traditional\proc\p18lf25k80.asm
              TXB1DLCbits   0x000f15       data     extern E:\c18v3.46\pic18-lt\cxx-framework\src\traditional\proc\p18lf25k80.asm
                 TXB1EIDH   0x000f13       data     extern E:\c18v3.46\pic18-lt\cxx-framework\src\traditional\proc\p18lf25k80.asm
             TXB1EIDHbits   0x000f13       data     extern E:\c18v3.46\pic18-lt\cxx-framework\src\traditional\proc\p18lf25k80.asm
                 TXB1EIDL   0x000f14       data     extern E:\c18v3.46\pic18-lt\cxx-framework\src\traditional\proc\p18lf25k80.asm
             TXB1EIDLbits   0x000f14       data     extern E:\c18v3.46\pic18-lt\cxx-framework\src\traditional\proc\p18lf25k80.asm
                 TXB1SIDH   0x000f11       data     extern E:\c18v3.46\pic18-lt\cxx-framework\src\traditional\proc\p18lf25k80.asm
             TXB1SIDHbits   0x000f11       data     extern E:\c18v3.46\pic18-lt\cxx-framework\src\traditional\proc\p18lf25k80.asm
                 TXB1SIDL   0x000f12       data     extern E:\c18v3.46\pic18-lt\cxx-framework\src\traditional\proc\p18lf25k80.asm
             TXB1SIDLbits   0x000f12       data     extern E:\c18v3.46\pic18-lt\cxx-framework\src\traditional\proc\p18lf25k80.asm
                  TXB2CON   0x000f00       data     extern E:\c18v3.46\pic18-lt\cxx-framework\src\traditional\proc\p18lf25k80.asm
              TXB2CONbits   0x000f00       data     extern E:\c18v3.46\pic18-lt\cxx-framework\src\traditional\proc\p18lf25k80.asm
                   TXB2D0   0x000f06       data     extern E:\c18v3.46\pic18-lt\cxx-framework\src\traditional\proc\p18lf25k80.asm
               TXB2D0bits   0x000f06       data     extern E:\c18v3.46\pic18-lt\cxx-framework\src\traditional\proc\p18lf25k80.asm
                   TXB2D1   0x000f07       data     extern E:\c18v3.46\pic18-lt\cxx-framework\src\traditional\proc\p18lf25k80.asm
               TXB2D1bits   0x000f07       data     extern E:\c18v3.46\pic18-lt\cxx-framework\src\traditional\proc\p18lf25k80.asm
                   TXB2D2   0x000f08       data     extern E:\c18v3.46\pic18-lt\cxx-framework\src\traditional\proc\p18lf25k80.asm
               TXB2D2bits   0x000f08       data     extern E:\c18v3.46\pic18-lt\cxx-framework\src\traditional\proc\p18lf25k80.asm
                   TXB2D3   0x000f09       data     extern E:\c18v3.46\pic18-lt\cxx-framework\src\traditional\proc\p18lf25k80.asm
               TXB2D3bits   0x000f09       data     extern E:\c18v3.46\pic18-lt\cxx-framework\src\traditional\proc\p18lf25k80.asm
                   TXB2D4   0x000f0a       data     extern E:\c18v3.46\pic18-lt\cxx-framework\src\traditional\proc\p18lf25k80.asm
               TXB2D4bits   0x000f0a       data     extern E:\c18v3.46\pic18-lt\cxx-framework\src\traditional\proc\p18lf25k80.asm
                   TXB2D5   0x000f0b       data     extern E:\c18v3.46\pic18-lt\cxx-framework\src\traditional\proc\p18lf25k80.asm
               TXB2D5bits   0x000f0b       data     extern E:\c18v3.46\pic18-lt\cxx-framework\src\traditional\proc\p18lf25k80.asm
                   TXB2D6   0x000f0c       data     extern E:\c18v3.46\pic18-lt\cxx-framework\src\traditional\proc\p18lf25k80.asm
               TXB2D6bits   0x000f0c       data     extern E:\c18v3.46\pic18-lt\cxx-framework\src\traditional\proc\p18lf25k80.asm
                   TXB2D7   0x000f0d       data     extern E:\c18v3.46\pic18-lt\cxx-framework\src\traditional\proc\p18lf25k80.asm
               TXB2D7bits   0x000f0d       data     extern E:\c18v3.46\pic18-lt\cxx-framework\src\traditional\proc\p18lf25k80.asm
                  TXB2DLC   0x000f05       data     extern E:\c18v3.46\pic18-lt\cxx-framework\src\traditional\proc\p18lf25k80.asm
              TXB2DLCbits   0x000f05       data     extern E:\c18v3.46\pic18-lt\cxx-framework\src\traditional\proc\p18lf25k80.asm
                 TXB2EIDH   0x000f03       data     extern E:\c18v3.46\pic18-lt\cxx-framework\src\traditional\proc\p18lf25k80.asm
             TXB2EIDHbits   0x000f03       data     extern E:\c18v3.46\pic18-lt\cxx-framework\src\traditional\proc\p18lf25k80.asm
                 TXB2EIDL   0x000f04       data     extern E:\c18v3.46\pic18-lt\cxx-framework\src\traditional\proc\p18lf25k80.asm
             TXB2EIDLbits   0x000f04       data     extern E:\c18v3.46\pic18-lt\cxx-framework\src\traditional\proc\p18lf25k80.asm
                 TXB2SIDH   0x000f01       data     extern E:\c18v3.46\pic18-lt\cxx-framework\src\traditional\proc\p18lf25k80.asm
             TXB2SIDHbits   0x000f01       data     extern E:\c18v3.46\pic18-lt\cxx-framework\src\traditional\proc\p18lf25k80.asm
                 TXB2SIDL   0x000f02       data     extern E:\c18v3.46\pic18-lt\cxx-framework\src\traditional\proc\p18lf25k80.asm
             TXB2SIDLbits   0x000f02       data     extern E:\c18v3.46\pic18-lt\cxx-framework\src\traditional\proc\p18lf25k80.asm
                    TXBIE   0x000e7f       data     extern E:\c18v3.46\pic18-lt\cxx-framework\src\traditional\proc\p18lf25k80.asm
                TXBIEbits   0x000e7f       data     extern E:\c18v3.46\pic18-lt\cxx-framework\src\traditional\proc\p18lf25k80.asm
                 TXERRCNT   0x000e42       data     extern E:\c18v3.46\pic18-lt\cxx-framework\src\traditional\proc\p18lf25k80.asm
             TXERRCNTbits   0x000e42       data     extern E:\c18v3.46\pic18-lt\cxx-framework\src\traditional\proc\p18lf25k80.asm
                    TXREG   0x000fad       data     extern E:\c18v3.46\pic18-lt\cxx-framework\src\traditional\proc\p18lf25k80.asm
                   TXREG1   0x000fad       data     extern E:\c18v3.46\pic18-lt\cxx-framework\src\traditional\proc\p18lf25k80.asm
                   TXREG2   0x000f79       data     extern E:\c18v3.46\pic18-lt\cxx-framework\src\traditional\proc\p18lf25k80.asm
                    TXSTA   0x000fac       data     extern E:\c18v3.46\pic18-lt\cxx-framework\src\traditional\proc\p18lf25k80.asm
                   TXSTA1   0x000fac       data     extern E:\c18v3.46\pic18-lt\cxx-framework\src\traditional\proc\p18lf25k80.asm
               TXSTA1bits   0x000fac       data     extern E:\c18v3.46\pic18-lt\cxx-framework\src\traditional\proc\p18lf25k80.asm
                   TXSTA2   0x000fba       data     extern E:\c18v3.46\pic18-lt\cxx-framework\src\traditional\proc\p18lf25k80.asm
               TXSTA2bits   0x000fba       data     extern E:\c18v3.46\pic18-lt\cxx-framework\src\traditional\proc\p18lf25k80.asm
                TXSTAbits   0x000fac       data     extern E:\c18v3.46\pic18-lt\cxx-framework\src\traditional\proc\p18lf25k80.asm
                    Three   0x000b6e       data     static C:\Users\pete\Desktop\Development\FiringSystemDdevelopment\PIC\HandControllerTriggerPortorCue\main2.c
                  TimeMsg   0x000a16       data     static C:\Users\pete\Desktop\Development\FiringSystemDdevelopment\PIC\HandControllerTriggerPortorCue\main2.c
                 TimeZero   0x000b25       data     static C:\Users\pete\Desktop\Development\FiringSystemDdevelopment\PIC\HandControllerTriggerPortorCue\main2.c
                TimerTick   0x0000b4       data     static C:\Users\pete\Desktop\Development\FiringSystemDdevelopment\PIC\HandControllerTriggerPortorCue\cranwellP18F25K80.h
                   ToLoad   0x000bf4       data     static C:\Users\pete\Desktop\Development\FiringSystemDdevelopment\PIC\HandControllerTriggerPortorCue\main2.c
                 TraceMsg   0x000130       data     static C:\Users\pete\Desktop\Development\FiringSystemDdevelopment\PIC\HandControllerTriggerPortorCue\main2.c
                      Two   0x000b6b       data     static C:\Users\pete\Desktop\Development\FiringSystemDdevelopment\PIC\HandControllerTriggerPortorCue\main2.c
              UARTErrorFR   0x0000c0       data     static C:\Users\pete\Desktop\Development\FiringSystemDdevelopment\PIC\HandControllerTriggerPortorCue\cranwellP18F25K80.h
              UARTErrorOR   0x0000be       data     static C:\Users\pete\Desktop\Development\FiringSystemDdevelopment\PIC\HandControllerTriggerPortorCue\cranwellP18F25K80.h
            USART1_Status   0x0000d7       data     extern E:\c18v3.46\pic18-lt\cxx-framework\src\pmc_common\USART\u1defs.c
            USART2_Status   0x0000d6       data     extern E:\c18v3.46\pic18-lt\cxx-framework\src\pmc_common\USART\u2defs.c
                     Unit   0x000af0       data     static C:\Users\pete\Desktop\Development\FiringSystemDdevelopment\PIC\HandControllerTriggerPortorCue\main2.c
                 UnitData   0x000195       data     static C:\Users\pete\Desktop\Development\FiringSystemDdevelopment\PIC\HandControllerTriggerPortorCue\main2.c
                UnitIndex   0x00018f       data     static C:\Users\pete\Desktop\Development\FiringSystemDdevelopment\PIC\HandControllerTriggerPortorCue\main2.c
               UnitToFire   0x000733       data     static C:\Users\pete\Desktop\Development\FiringSystemDdevelopment\PIC\HandControllerTriggerPortorCue\main2.c
                   WDTCON   0x000fd1       data     extern E:\c18v3.46\pic18-lt\cxx-framework\src\traditional\proc\p18lf25k80.asm
               WDTCONbits   0x000fd1       data     extern E:\c18v3.46\pic18-lt\cxx-framework\src\traditional\proc\p18lf25k80.asm
                     WPUB   0x000f5b       data     extern E:\c18v3.46\pic18-lt\cxx-framework\src\traditional\proc\p18lf25k80.asm
                 WPUBbits   0x000f5b       data     extern E:\c18v3.46\pic18-lt\cxx-framework\src\traditional\proc\p18lf25k80.asm
                     WREG   0x000fe8       data     extern E:\c18v3.46\pic18-lt\cxx-framework\src\traditional\proc\p18lf25k80.asm
                     Work   0x000c90       data     static C:\Users\pete\Desktop\Development\FiringSystemDdevelopment\PIC\HandControllerTriggerPortorCue\main2.c
                    Work2   0x000c93       data     static C:\Users\pete\Desktop\Development\FiringSystemDdevelopment\PIC\HandControllerTriggerPortorCue\main2.c
               WorkBuffer   0x000060       data     extern C:\Users\pete\Desktop\Development\FiringSystemDdevelopment\PIC\HandControllerTriggerPortorCue\main2.c
              WorkMessage   0x000755       data     static C:\Users\pete\Desktop\Development\FiringSystemDdevelopment\PIC\HandControllerTriggerPortorCue\main2.c
                  WorkMsg   0x000179       data     static C:\Users\pete\Desktop\Development\FiringSystemDdevelopment\PIC\HandControllerTriggerPortorCue\main2.c
                   Zeroes   0x000b16       data     static C:\Users\pete\Desktop\Development\FiringSystemDdevelopment\PIC\HandControllerTriggerPortorCue\main2.c
                 __AARGB0   0x000009       data     extern E:\c18v3.46\pic18-lt\cxx-framework\src\traditional\math\aarg.asm
                 __AARGB1   0x000008       data     extern E:\c18v3.46\pic18-lt\cxx-framework\src\traditional\math\aarg.asm
                 __AARGB2   0x000007       data     extern E:\c18v3.46\pic18-lt\cxx-framework\src\traditional\math\aarg.asm
                 __AARGB3   0x000006       data     extern E:\c18v3.46\pic18-lt\cxx-framework\src\traditional\math\aarg.asm
                 __AARGB4   0x000005       data     extern E:\c18v3.46\pic18-lt\cxx-framework\src\traditional\math\aarg.asm
                 __AARGB5   0x000004       data     extern E:\c18v3.46\pic18-lt\cxx-framework\src\traditional\math\aarg.asm
                 __AARGB6   0x000003       data     extern E:\c18v3.46\pic18-lt\cxx-framework\src\traditional\math\aarg.asm
                 __AARGB7   0x000002       data     extern E:\c18v3.46\pic18-lt\cxx-framework\src\traditional\math\aarg.asm
                   __AEXP   0x00000a       data     extern E:\c18v3.46\pic18-lt\cxx-framework\src\traditional\math\aarg.asm
                 __BARGB0   0x00000e       data     extern E:\c18v3.46\pic18-lt\cxx-framework\src\traditional\math\barg.asm
                 __BARGB1   0x00000d       data     extern E:\c18v3.46\pic18-lt\cxx-framework\src\traditional\math\barg.asm
                 __BARGB2   0x00000c       data     extern E:\c18v3.46\pic18-lt\cxx-framework\src\traditional\math\barg.asm
                 __BARGB3   0x00000b       data     extern E:\c18v3.46\pic18-lt\cxx-framework\src\traditional\math\barg.asm
                   __BEXP   0x00000f       data     extern E:\c18v3.46\pic18-lt\cxx-framework\src\traditional\math\barg.asm
                __FPFLAGS   0x000001       data     extern E:\c18v3.46\pic18-lt\cxx-framework\src\traditional\math\cmath18.asm
            __FPFLAGSbits   0x000001       data     extern E:\c18v3.46\pic18-lt\cxx-framework\src\traditional\math\cmath18.asm
                  __REMB0   0x000005       data     extern E:\c18v3.46\pic18-lt\cxx-framework\src\traditional\math\aarg.asm
                  __REMB1   0x000004       data     extern E:\c18v3.46\pic18-lt\cxx-framework\src\traditional\math\aarg.asm
                  __REMB2   0x000003       data     extern E:\c18v3.46\pic18-lt\cxx-framework\src\traditional\math\aarg.asm
                  __REMB3   0x000002       data     extern E:\c18v3.46\pic18-lt\cxx-framework\src\traditional\math\aarg.asm
                   __TEMP   0x000013       data     extern E:\c18v3.46\pic18-lt\cxx-framework\src\traditional\math\temparg.asm
                 __TEMPB0   0x000013       data     extern E:\c18v3.46\pic18-lt\cxx-framework\src\traditional\math\temparg.asm
                 __TEMPB1   0x000012       data     extern E:\c18v3.46\pic18-lt\cxx-framework\src\traditional\math\temparg.asm
                 __TEMPB2   0x000011       data     extern E:\c18v3.46\pic18-lt\cxx-framework\src\traditional\math\temparg.asm
                 __TEMPB3   0x000010       data     extern E:\c18v3.46\pic18-lt\cxx-framework\src\traditional\math\temparg.asm
                  __tmp_0   0x000014       data     static E:\c18v3.46\pic18-lt\cxx-framework\src\traditional\stdclib\sprintf.c
                  __tmp_0   0x000014       data     static E:\c18v3.46\pic18-lt\cxx-framework\src\traditional\stdclib\vfprintf.c
                  __tmp_0   0x000014       data     static E:\c18v3.46\pic18-lt\cxx-framework\src\traditional\stdclib\putc.c
                  __tmp_0   0x000014       data     static C:\Users\pete\Desktop\Development\FiringSystemDdevelopment\PIC\HandControllerTriggerPortorCue\u2open.c
                  __tmp_0   0x000014       data     static C:\Users\pete\Desktop\Development\FiringSystemDdevelopment\PIC\HandControllerTriggerPortorCue\write_B.c
                  __tmp_0   0x000014       data     static C:\Users\pete\Desktop\Development\FiringSystemDdevelopment\PIC\HandControllerTriggerPortorCue\main2.c
                  __tmp_1   0x000020       data     static C:\Users\pete\Desktop\Development\FiringSystemDdevelopment\PIC\HandControllerTriggerPortorCue\main2.c
                        c   0x000743       data     static C:\Users\pete\Desktop\Development\FiringSystemDdevelopment\PIC\HandControllerTriggerPortorCue\main2.c
                   cCheck   0x000af6       data     static C:\Users\pete\Desktop\Development\FiringSystemDdevelopment\PIC\HandControllerTriggerPortorCue\main2.c
   cNextSendMessageNumber   0x00012a       data     static C:\Users\pete\Desktop\Development\FiringSystemDdevelopment\PIC\HandControllerTriggerPortorCue\main2.c
   cReceivedMessageNumber   0x000128       data     static C:\Users\pete\Desktop\Development\FiringSystemDdevelopment\PIC\HandControllerTriggerPortorCue\main2.c
                    cTemp   0x000749       data     static C:\Users\pete\Desktop\Development\FiringSystemDdevelopment\PIC\HandControllerTriggerPortorCue\main2.c
                       cd   0x000745       data     static C:\Users\pete\Desktop\Development\FiringSystemDdevelopment\PIC\HandControllerTriggerPortorCue\main2.c
                   cdigit   0x000ada       data     static C:\Users\pete\Desktop\Development\FiringSystemDdevelopment\PIC\HandControllerTriggerPortorCue\main2.c
                       cp   0x000126       data     static C:\Users\pete\Desktop\Development\FiringSystemDdevelopment\PIC\HandControllerTriggerPortorCue\main2.c
                curr_byte   0x0000cb       data     static E:\c18v3.46\pic18-lt\cxx-framework\src\traditional\startup\c018i.c
               curr_entry   0x0000cd       data     static E:\c18v3.46\pic18-lt\cxx-framework\src\traditional\startup\c018i.c
                        d   0x000741       data     static C:\Users\pete\Desktop\Development\FiringSystemDdevelopment\PIC\HandControllerTriggerPortorCue\main2.c
                 data_ptr   0x0000cf       data     static E:\c18v3.46\pic18-lt\cxx-framework\src\traditional\startup\c018i.c
                      div   0x00071d       data     static C:\Users\pete\Desktop\Development\FiringSystemDdevelopment\PIC\HandControllerTriggerPortorCue\main2.c
                   factor   0x000cab       data     static C:\Users\pete\Desktop\Development\FiringSystemDdevelopment\PIC\HandControllerTriggerPortorCue\main2.c
                        i   0x00073f       data     static C:\Users\pete\Desktop\Development\FiringSystemDdevelopment\PIC\HandControllerTriggerPortorCue\main2.c
                        i   0x00011e       data     static C:\Users\pete\Desktop\Development\FiringSystemDdevelopment\PIC\HandControllerTriggerPortorCue\main2.c
                        i   0x00074d       data     static C:\Users\pete\Desktop\Development\FiringSystemDdevelopment\PIC\HandControllerTriggerPortorCue\main2.c
                   iCheck   0x00011c       data     static C:\Users\pete\Desktop\Development\FiringSystemDdevelopment\PIC\HandControllerTriggerPortorCue\main2.c
                     iCmd   0x000b12       data     extern C:\Users\pete\Desktop\Development\FiringSystemDdevelopment\PIC\HandControllerTriggerPortorCue\main2.c
                    iCode   0x000120       data     static C:\Users\pete\Desktop\Development\FiringSystemDdevelopment\PIC\HandControllerTriggerPortorCue\main2.c
                  iSubCmd   0x000b14       data     extern C:\Users\pete\Desktop\Development\FiringSystemDdevelopment\PIC\HandControllerTriggerPortorCue\main2.c
                    iUnit   0x000122       data     static C:\Users\pete\Desktop\Development\FiringSystemDdevelopment\PIC\HandControllerTriggerPortorCue\main2.c
                    iUnit   0x00075f       data     static C:\Users\pete\Desktop\Development\FiringSystemDdevelopment\PIC\HandControllerTriggerPortorCue\main2.c
                       ii   0x0000c4       data     static C:\Users\pete\Desktop\Development\FiringSystemDdevelopment\PIC\HandControllerTriggerPortorCue\cranwellP18F25K80.h
                       ii   0x000737       data     static C:\Users\pete\Desktop\Development\FiringSystemDdevelopment\PIC\HandControllerTriggerPortorCue\main2.c
                  intCode   0x000116       data     static C:\Users\pete\Desktop\Development\FiringSystemDdevelopment\PIC\HandControllerTriggerPortorCue\main2.c
                  intData   0x00011a       data     static C:\Users\pete\Desktop\Development\FiringSystemDdevelopment\PIC\HandControllerTriggerPortorCue\main2.c
                  intPort   0x000118       data     static C:\Users\pete\Desktop\Development\FiringSystemDdevelopment\PIC\HandControllerTriggerPortorCue\main2.c
                        j   0x00011f       data     static C:\Users\pete\Desktop\Development\FiringSystemDdevelopment\PIC\HandControllerTriggerPortorCue\main2.c
                       k0   0x000b82       data     extern C:\Users\pete\Desktop\Development\FiringSystemDdevelopment\PIC\HandControllerTriggerPortorCue\main2.c
                       k1   0x000b84       data     extern C:\Users\pete\Desktop\Development\FiringSystemDdevelopment\PIC\HandControllerTriggerPortorCue\main2.c
                      k10   0x000b96       data     extern C:\Users\pete\Desktop\Development\FiringSystemDdevelopment\PIC\HandControllerTriggerPortorCue\main2.c
                      k11   0x000b98       data     extern C:\Users\pete\Desktop\Development\FiringSystemDdevelopment\PIC\HandControllerTriggerPortorCue\main2.c
                       k2   0x000b86       data     extern C:\Users\pete\Desktop\Development\FiringSystemDdevelopment\PIC\HandControllerTriggerPortorCue\main2.c
                       k3   0x000b88       data     extern C:\Users\pete\Desktop\Development\FiringSystemDdevelopment\PIC\HandControllerTriggerPortorCue\main2.c
                       k4   0x000b8a       data     extern C:\Users\pete\Desktop\Development\FiringSystemDdevelopment\PIC\HandControllerTriggerPortorCue\main2.c
                       k5   0x000b8c       data     extern C:\Users\pete\Desktop\Development\FiringSystemDdevelopment\PIC\HandControllerTriggerPortorCue\main2.c
                       k6   0x000b8e       data     extern C:\Users\pete\Desktop\Development\FiringSystemDdevelopment\PIC\HandControllerTriggerPortorCue\main2.c
                       k7   0x000b90       data     extern C:\Users\pete\Desktop\Development\FiringSystemDdevelopment\PIC\HandControllerTriggerPortorCue\main2.c
                       k8   0x000b92       data     extern C:\Users\pete\Desktop\Development\FiringSystemDdevelopment\PIC\HandControllerTriggerPortorCue\main2.c
                       k9   0x000b94       data     extern C:\Users\pete\Desktop\Development\FiringSystemDdevelopment\PIC\HandControllerTriggerPortorCue\main2.c
                        n   0x000710       data     static C:\Users\pete\Desktop\Development\FiringSystemDdevelopment\PIC\HandControllerTriggerPortorCue\main2.c
                        p   0x0000c2       data     static C:\Users\pete\Desktop\Development\FiringSystemDdevelopment\PIC\HandControllerTriggerPortorCue\cranwellP18F25K80.h
                        p   0x00012e       data     static C:\Users\pete\Desktop\Development\FiringSystemDdevelopment\PIC\HandControllerTriggerPortorCue\main2.c
                     prom   0x0000c8       data     static E:\c18v3.46\pic18-lt\cxx-framework\src\traditional\startup\c018i.c
                     str1   0x00071f       data     static C:\Users\pete\Desktop\Development\FiringSystemDdevelopment\PIC\HandControllerTriggerPortorCue\main2.c
                     str2   0x000729       data     static C:\Users\pete\Desktop\Development\FiringSystemDdevelopment\PIC\HandControllerTriggerPortorCue\main2.c
                      sum   0x00073d       data     static C:\Users\pete\Desktop\Development\FiringSystemDdevelopment\PIC\HandControllerTriggerPortorCue\main2.c
                 uartdata   0x000761       data     extern C:\Users\pete\Desktop\Development\FiringSystemDdevelopment\PIC\HandControllerTriggerPortorCue\uartdata.asm
                    uptr1   0x0000ab       data     static C:\Users\pete\Desktop\Development\FiringSystemDdevelopment\PIC\HandControllerTriggerPortorCue\cranwellP18F25K80.h
                    uptr2   0x0000ae       data     static C:\Users\pete\Desktop\Development\FiringSystemDdevelopment\PIC\HandControllerTriggerPortorCue\cranwellP18F25K80.h



                              Symbols - Sorted by Address
                     Name    Address   Location    Storage File                     
                ---------  ---------  ---------  --------- ---------                
                   _entry   0x000000    program     extern E:\c18v3.46\pic18-lt\cxx-framework\src\traditional\startup\c018i.c
       ___return_lbl00000   0x000004    program     static                          
               _user_putc   0x000006    program     extern E:\c18v3.46\pic18-lt\cxx-framework\src\traditional\stdclib\_user_putc.c
               HighVector   0x000008    program     extern C:\Users\pete\Desktop\Development\FiringSystemDdevelopment\PIC\HandControllerTriggerPortorCue\cranwellP18F25K80.h
       ___return_lbl00000   0x00001c    program     static                          
                MyHighISR   0x00001e    program     extern C:\Users\pete\Desktop\Development\FiringSystemDdevelopment\PIC\HandControllerTriggerPortorCue\cranwellP18F25K80.h
           ___if_lbl00002   0x00005a    program     static                          
           ___if_lbl00003   0x000070    program     static                          
           ___if_lbl00004   0x000092    program     static                          
           ___if_lbl00005   0x0000ba    program     static                          
           ___if_lbl00007   0x0000e6    program     static                          
           ___if_lbl00006   0x0000e6    program     static                          
                     exit   0x0000fc    program     static                          
           ___if_lbl00008   0x0000fc    program     static                          
                    exit2   0x0000fe    program     static                          
       ___return_lbl00001   0x000110    program     static                          
              StartTimer0   0x00012a    program     extern C:\Users\pete\Desktop\Development\FiringSystemDdevelopment\PIC\HandControllerTriggerPortorCue\cranwellP18F25K80.h
              StartTimer1   0x000136    program     extern C:\Users\pete\Desktop\Development\FiringSystemDdevelopment\PIC\HandControllerTriggerPortorCue\cranwellP18F25K80.h
              vgets1USART   0x000152    program     extern C:\Users\pete\Desktop\Development\FiringSystemDdevelopment\PIC\HandControllerTriggerPortorCue\cranwellP18F25K80.h
              ResetTimer0   0x0002a6    program     extern C:\Users\pete\Desktop\Development\FiringSystemDdevelopment\PIC\HandControllerTriggerPortorCue\cranwellP18F25K80.h
              ResetTimer1   0x000414    program     extern C:\Users\pete\Desktop\Development\FiringSystemDdevelopment\PIC\HandControllerTriggerPortorCue\cranwellP18F25K80.h
    Open1USARTpic18f25k80   0x00056a    program     extern C:\Users\pete\Desktop\Development\FiringSystemDdevelopment\PIC\HandControllerTriggerPortorCue\cranwellP18F25K80.h
    Open2USARTpic18f25k80   0x000590    program     extern C:\Users\pete\Desktop\Development\FiringSystemDdevelopment\PIC\HandControllerTriggerPortorCue\cranwellP18F25K80.h
              vputs1USART   0x0005a6    program     extern C:\Users\pete\Desktop\Development\FiringSystemDdevelopment\PIC\HandControllerTriggerPortorCue\cranwellP18F25K80.h
            DataRdyUSART1   0x000732    program     extern C:\Users\pete\Desktop\Development\FiringSystemDdevelopment\PIC\HandControllerTriggerPortorCue\cranwellP18F25K80.h
               Wait2USART   0x000740    program     extern C:\Users\pete\Desktop\Development\FiringSystemDdevelopment\PIC\HandControllerTriggerPortorCue\cranwellP18F25K80.h
                  DelayMS   0x00074e    program     extern C:\Users\pete\Desktop\Development\FiringSystemDdevelopment\PIC\HandControllerTriggerPortorCue\cranwellP18F25K80.h
             Myputs2USART   0x0007ca    program     extern C:\Users\pete\Desktop\Development\FiringSystemDdevelopment\PIC\HandControllerTriggerPortorCue\cranwellP18F25K80.h
                    LCDON   0x000844    program     extern C:\Users\pete\Desktop\Development\FiringSystemDdevelopment\PIC\HandControllerTriggerPortorCue\cranwellP18F25K80.h
                 LCDClear   0x00085e    program     extern C:\Users\pete\Desktop\Development\FiringSystemDdevelopment\PIC\HandControllerTriggerPortorCue\cranwellP18F25K80.h
                 LCDReset   0x000878    program     extern C:\Users\pete\Desktop\Development\FiringSystemDdevelopment\PIC\HandControllerTriggerPortorCue\cranwellP18F25K80.h
                 Pin2HIGH   0x000892    program     extern C:\Users\pete\Desktop\Development\FiringSystemDdevelopment\PIC\HandControllerTriggerPortorCue\cranwellP18F25K80.h
                  Pin2LOW   0x0008a6    program     extern C:\Users\pete\Desktop\Development\FiringSystemDdevelopment\PIC\HandControllerTriggerPortorCue\cranwellP18F25K80.h
                  GetPin2   0x0008ba    program     extern C:\Users\pete\Desktop\Development\FiringSystemDdevelopment\PIC\HandControllerTriggerPortorCue\cranwellP18F25K80.h
                 Pin3HIGH   0x0008d0    program     extern C:\Users\pete\Desktop\Development\FiringSystemDdevelopment\PIC\HandControllerTriggerPortorCue\cranwellP18F25K80.h
                  Pin3LOW   0x0008e4    program     extern C:\Users\pete\Desktop\Development\FiringSystemDdevelopment\PIC\HandControllerTriggerPortorCue\cranwellP18F25K80.h
                  GetPin3   0x0008f8    program     extern C:\Users\pete\Desktop\Development\FiringSystemDdevelopment\PIC\HandControllerTriggerPortorCue\cranwellP18F25K80.h
                 Pin4HIGH   0x00090e    program     extern C:\Users\pete\Desktop\Development\FiringSystemDdevelopment\PIC\HandControllerTriggerPortorCue\cranwellP18F25K80.h
                  Pin4LOW   0x000922    program     extern C:\Users\pete\Desktop\Development\FiringSystemDdevelopment\PIC\HandControllerTriggerPortorCue\cranwellP18F25K80.h
                  GetPin4   0x000936    program     extern C:\Users\pete\Desktop\Development\FiringSystemDdevelopment\PIC\HandControllerTriggerPortorCue\cranwellP18F25K80.h
                 Pin5HIGH   0x00094c    program     extern C:\Users\pete\Desktop\Development\FiringSystemDdevelopment\PIC\HandControllerTriggerPortorCue\cranwellP18F25K80.h
                  Pin5LOW   0x000960    program     extern C:\Users\pete\Desktop\Development\FiringSystemDdevelopment\PIC\HandControllerTriggerPortorCue\cranwellP18F25K80.h
                  GetPin5   0x000974    program     extern C:\Users\pete\Desktop\Development\FiringSystemDdevelopment\PIC\HandControllerTriggerPortorCue\cranwellP18F25K80.h
                 Pin6HIGH   0x00098a    program     extern C:\Users\pete\Desktop\Development\FiringSystemDdevelopment\PIC\HandControllerTriggerPortorCue\cranwellP18F25K80.h
                  Pin6LOW   0x00099e    program     extern C:\Users\pete\Desktop\Development\FiringSystemDdevelopment\PIC\HandControllerTriggerPortorCue\cranwellP18F25K80.h
                  GetPin6   0x0009b2    program     extern C:\Users\pete\Desktop\Development\FiringSystemDdevelopment\PIC\HandControllerTriggerPortorCue\cranwellP18F25K80.h
                 Pin7HIGH   0x0009c8    program     extern C:\Users\pete\Desktop\Development\FiringSystemDdevelopment\PIC\HandControllerTriggerPortorCue\cranwellP18F25K80.h
                  Pin7LOW   0x0009d6    program     extern C:\Users\pete\Desktop\Development\FiringSystemDdevelopment\PIC\HandControllerTriggerPortorCue\cranwellP18F25K80.h
                  GetPin7   0x0009e4    program     extern C:\Users\pete\Desktop\Development\FiringSystemDdevelopment\PIC\HandControllerTriggerPortorCue\cranwellP18F25K80.h
                 Pin9HIGH   0x0009fa    program     extern C:\Users\pete\Desktop\Development\FiringSystemDdevelopment\PIC\HandControllerTriggerPortorCue\cranwellP18F25K80.h
                  Pin9LOW   0x000a08    program     extern C:\Users\pete\Desktop\Development\FiringSystemDdevelopment\PIC\HandControllerTriggerPortorCue\cranwellP18F25K80.h
                  GetPin9   0x000a16    program     extern C:\Users\pete\Desktop\Development\FiringSystemDdevelopment\PIC\HandControllerTriggerPortorCue\cranwellP18F25K80.h
                Pin10HIGH   0x000a2c    program     extern C:\Users\pete\Desktop\Development\FiringSystemDdevelopment\PIC\HandControllerTriggerPortorCue\cranwellP18F25K80.h
                 Pin10LOW   0x000a3a    program     extern C:\Users\pete\Desktop\Development\FiringSystemDdevelopment\PIC\HandControllerTriggerPortorCue\cranwellP18F25K80.h
                 GetPin10   0x000a48    program     extern C:\Users\pete\Desktop\Development\FiringSystemDdevelopment\PIC\HandControllerTriggerPortorCue\cranwellP18F25K80.h
                Pin11HIGH   0x000a5e    program     extern C:\Users\pete\Desktop\Development\FiringSystemDdevelopment\PIC\HandControllerTriggerPortorCue\cranwellP18F25K80.h
                 Pin11LOW   0x000a6c    program     extern C:\Users\pete\Desktop\Development\FiringSystemDdevelopment\PIC\HandControllerTriggerPortorCue\cranwellP18F25K80.h
                 GetPin11   0x000a7a    program     extern C:\Users\pete\Desktop\Development\FiringSystemDdevelopment\PIC\HandControllerTriggerPortorCue\cranwellP18F25K80.h
                Pin12HIGH   0x000a90    program     extern C:\Users\pete\Desktop\Development\FiringSystemDdevelopment\PIC\HandControllerTriggerPortorCue\cranwellP18F25K80.h
                 Pin12LOW   0x000a9e    program     extern C:\Users\pete\Desktop\Development\FiringSystemDdevelopment\PIC\HandControllerTriggerPortorCue\cranwellP18F25K80.h
                 GetPin12   0x000aac    program     extern C:\Users\pete\Desktop\Development\FiringSystemDdevelopment\PIC\HandControllerTriggerPortorCue\cranwellP18F25K80.h
                Pin13HIGH   0x000ac2    program     extern C:\Users\pete\Desktop\Development\FiringSystemDdevelopment\PIC\HandControllerTriggerPortorCue\cranwellP18F25K80.h
                 Pin13LOW   0x000ad0    program     extern C:\Users\pete\Desktop\Development\FiringSystemDdevelopment\PIC\HandControllerTriggerPortorCue\cranwellP18F25K80.h
                 GetPin13   0x000ade    program     extern C:\Users\pete\Desktop\Development\FiringSystemDdevelopment\PIC\HandControllerTriggerPortorCue\cranwellP18F25K80.h
                Pin14HIGH   0x000af4    program     extern C:\Users\pete\Desktop\Development\FiringSystemDdevelopment\PIC\HandControllerTriggerPortorCue\cranwellP18F25K80.h
                 Pin14LOW   0x000b02    program     extern C:\Users\pete\Desktop\Development\FiringSystemDdevelopment\PIC\HandControllerTriggerPortorCue\cranwellP18F25K80.h
                 GetPin14   0x000b10    program     extern C:\Users\pete\Desktop\Development\FiringSystemDdevelopment\PIC\HandControllerTriggerPortorCue\cranwellP18F25K80.h
                Pin15HIGH   0x000b26    program     extern C:\Users\pete\Desktop\Development\FiringSystemDdevelopment\PIC\HandControllerTriggerPortorCue\cranwellP18F25K80.h
                 Pin15LOW   0x000b34    program     extern C:\Users\pete\Desktop\Development\FiringSystemDdevelopment\PIC\HandControllerTriggerPortorCue\cranwellP18F25K80.h
                 GetPin15   0x000b42    program     extern C:\Users\pete\Desktop\Development\FiringSystemDdevelopment\PIC\HandControllerTriggerPortorCue\cranwellP18F25K80.h
                Pin16HIGH   0x000b58    program     extern C:\Users\pete\Desktop\Development\FiringSystemDdevelopment\PIC\HandControllerTriggerPortorCue\cranwellP18F25K80.h
                 Pin16LOW   0x000b66    program     extern C:\Users\pete\Desktop\Development\FiringSystemDdevelopment\PIC\HandControllerTriggerPortorCue\cranwellP18F25K80.h
                 GetPin16   0x000b74    program     extern C:\Users\pete\Desktop\Development\FiringSystemDdevelopment\PIC\HandControllerTriggerPortorCue\cranwellP18F25K80.h
                Pin21HIGH   0x000b8a    program     extern C:\Users\pete\Desktop\Development\FiringSystemDdevelopment\PIC\HandControllerTriggerPortorCue\cranwellP18F25K80.h
                 Pin21LOW   0x000b98    program     extern C:\Users\pete\Desktop\Development\FiringSystemDdevelopment\PIC\HandControllerTriggerPortorCue\cranwellP18F25K80.h
                 GetPin21   0x000ba6    program     extern C:\Users\pete\Desktop\Development\FiringSystemDdevelopment\PIC\HandControllerTriggerPortorCue\cranwellP18F25K80.h
                Pin22HIGH   0x000bbc    program     extern C:\Users\pete\Desktop\Development\FiringSystemDdevelopment\PIC\HandControllerTriggerPortorCue\cranwellP18F25K80.h
                 Pin22LOW   0x000bca    program     extern C:\Users\pete\Desktop\Development\FiringSystemDdevelopment\PIC\HandControllerTriggerPortorCue\cranwellP18F25K80.h
                 GetPin22   0x000bd8    program     extern C:\Users\pete\Desktop\Development\FiringSystemDdevelopment\PIC\HandControllerTriggerPortorCue\cranwellP18F25K80.h
                Pin23HIGH   0x000bee    program     extern C:\Users\pete\Desktop\Development\FiringSystemDdevelopment\PIC\HandControllerTriggerPortorCue\cranwellP18F25K80.h
                 Pin23LOW   0x000bfc    program     extern C:\Users\pete\Desktop\Development\FiringSystemDdevelopment\PIC\HandControllerTriggerPortorCue\cranwellP18F25K80.h
                 GetPin23   0x000c0a    program     extern C:\Users\pete\Desktop\Development\FiringSystemDdevelopment\PIC\HandControllerTriggerPortorCue\cranwellP18F25K80.h
                Pin24HIGH   0x000c20    program     extern C:\Users\pete\Desktop\Development\FiringSystemDdevelopment\PIC\HandControllerTriggerPortorCue\cranwellP18F25K80.h
                 Pin24LOW   0x000c2e    program     extern C:\Users\pete\Desktop\Development\FiringSystemDdevelopment\PIC\HandControllerTriggerPortorCue\cranwellP18F25K80.h
                 GetPin24   0x000c3c    program     extern C:\Users\pete\Desktop\Development\FiringSystemDdevelopment\PIC\HandControllerTriggerPortorCue\cranwellP18F25K80.h
                Pin25HIGH   0x000c52    program     extern C:\Users\pete\Desktop\Development\FiringSystemDdevelopment\PIC\HandControllerTriggerPortorCue\cranwellP18F25K80.h
                 Pin25LOW   0x000c60    program     extern C:\Users\pete\Desktop\Development\FiringSystemDdevelopment\PIC\HandControllerTriggerPortorCue\cranwellP18F25K80.h
                 GetPin25   0x000c6e    program     extern C:\Users\pete\Desktop\Development\FiringSystemDdevelopment\PIC\HandControllerTriggerPortorCue\cranwellP18F25K80.h
                Pin26HIGH   0x000c84    program     extern C:\Users\pete\Desktop\Development\FiringSystemDdevelopment\PIC\HandControllerTriggerPortorCue\cranwellP18F25K80.h
                 Pin26LOW   0x000c92    program     extern C:\Users\pete\Desktop\Development\FiringSystemDdevelopment\PIC\HandControllerTriggerPortorCue\cranwellP18F25K80.h
                 GetPin26   0x000ca0    program     extern C:\Users\pete\Desktop\Development\FiringSystemDdevelopment\PIC\HandControllerTriggerPortorCue\cranwellP18F25K80.h
                Pin27HIGH   0x000cb6    program     extern C:\Users\pete\Desktop\Development\FiringSystemDdevelopment\PIC\HandControllerTriggerPortorCue\cranwellP18F25K80.h
                 Pin27LOW   0x000cc4    program     extern C:\Users\pete\Desktop\Development\FiringSystemDdevelopment\PIC\HandControllerTriggerPortorCue\cranwellP18F25K80.h
                 GetPin27   0x000cd2    program     extern C:\Users\pete\Desktop\Development\FiringSystemDdevelopment\PIC\HandControllerTriggerPortorCue\cranwellP18F25K80.h
                Pin28HIGH   0x000ce8    program     extern C:\Users\pete\Desktop\Development\FiringSystemDdevelopment\PIC\HandControllerTriggerPortorCue\cranwellP18F25K80.h
                 Pin28LOW   0x000cf6    program     extern C:\Users\pete\Desktop\Development\FiringSystemDdevelopment\PIC\HandControllerTriggerPortorCue\cranwellP18F25K80.h
                 GetPin28   0x000d04    program     extern C:\Users\pete\Desktop\Development\FiringSystemDdevelopment\PIC\HandControllerTriggerPortorCue\cranwellP18F25K80.h
                  PinHIGH   0x000d1a    program     extern C:\Users\pete\Desktop\Development\FiringSystemDdevelopment\PIC\HandControllerTriggerPortorCue\cranwellP18F25K80.h
                   PinLOW   0x000e76    program     extern C:\Users\pete\Desktop\Development\FiringSystemDdevelopment\PIC\HandControllerTriggerPortorCue\cranwellP18F25K80.h
                  PinTest   0x000fd2    program     extern C:\Users\pete\Desktop\Development\FiringSystemDdevelopment\PIC\HandControllerTriggerPortorCue\cranwellP18F25K80.h
                      abs   0x001278    program     extern C:\Users\pete\Desktop\Development\FiringSystemDdevelopment\PIC\HandControllerTriggerPortorCue\cranwellP18F25K80.h
                     main   0x0012c8    program     extern C:\Users\pete\Desktop\Development\FiringSystemDdevelopment\PIC\HandControllerTriggerPortorCue\main2.c
                  IntToCh   0x001820    program     extern C:\Users\pete\Desktop\Development\FiringSystemDdevelopment\PIC\HandControllerTriggerPortorCue\main2.c
    BumpSendMessageNumber   0x001892    program     extern C:\Users\pete\Desktop\Development\FiringSystemDdevelopment\PIC\HandControllerTriggerPortorCue\main2.c
              Transaction   0x00197e    program     extern C:\Users\pete\Desktop\Development\FiringSystemDdevelopment\PIC\HandControllerTriggerPortorCue\main2.c
                Broadcast   0x001c62    program     extern C:\Users\pete\Desktop\Development\FiringSystemDdevelopment\PIC\HandControllerTriggerPortorCue\main2.c
               CheckDigit   0x001cce    program     extern C:\Users\pete\Desktop\Development\FiringSystemDdevelopment\PIC\HandControllerTriggerPortorCue\main2.c
           InitializeData   0x001e52    program     extern C:\Users\pete\Desktop\Development\FiringSystemDdevelopment\PIC\HandControllerTriggerPortorCue\main2.c
                  SendLCD   0x001f3a    program     extern C:\Users\pete\Desktop\Development\FiringSystemDdevelopment\PIC\HandControllerTriggerPortorCue\main2.c
               GetCommand   0x001f6e    program     extern C:\Users\pete\Desktop\Development\FiringSystemDdevelopment\PIC\HandControllerTriggerPortorCue\main2.c
            BroadcastTime   0x002368    program     extern C:\Users\pete\Desktop\Development\FiringSystemDdevelopment\PIC\HandControllerTriggerPortorCue\main2.c
                 ArmUnits   0x002422    program     extern C:\Users\pete\Desktop\Development\FiringSystemDdevelopment\PIC\HandControllerTriggerPortorCue\main2.c
              DisArmUnits   0x0024be    program     extern C:\Users\pete\Desktop\Development\FiringSystemDdevelopment\PIC\HandControllerTriggerPortorCue\main2.c
           GetPedalStatus   0x002556    program     extern C:\Users\pete\Desktop\Development\FiringSystemDdevelopment\PIC\HandControllerTriggerPortorCue\main2.c
       InitializeHardware   0x00256e    program     extern C:\Users\pete\Desktop\Development\FiringSystemDdevelopment\PIC\HandControllerTriggerPortorCue\main2.c
                  BlinkOK   0x002586    program     extern C:\Users\pete\Desktop\Development\FiringSystemDdevelopment\PIC\HandControllerTriggerPortorCue\main2.c
                  BlinkNG   0x00258e    program     extern C:\Users\pete\Desktop\Development\FiringSystemDdevelopment\PIC\HandControllerTriggerPortorCue\main2.c
                    Blink   0x002596    program     extern C:\Users\pete\Desktop\Development\FiringSystemDdevelopment\PIC\HandControllerTriggerPortorCue\main2.c
                 LoadShow   0x002618    program     extern C:\Users\pete\Desktop\Development\FiringSystemDdevelopment\PIC\HandControllerTriggerPortorCue\main2.c
              GlobalReset   0x0026e0    program     extern C:\Users\pete\Desktop\Development\FiringSystemDdevelopment\PIC\HandControllerTriggerPortorCue\main2.c
                 FastPoll   0x002792    program     extern C:\Users\pete\Desktop\Development\FiringSystemDdevelopment\PIC\HandControllerTriggerPortorCue\main2.c
                 SlowPoll   0x002bee    program     extern C:\Users\pete\Desktop\Development\FiringSystemDdevelopment\PIC\HandControllerTriggerPortorCue\main2.c
                ResetLEDs   0x003056    program     extern C:\Users\pete\Desktop\Development\FiringSystemDdevelopment\PIC\HandControllerTriggerPortorCue\main2.c
             StartSession   0x003068    program     extern C:\Users\pete\Desktop\Development\FiringSystemDdevelopment\PIC\HandControllerTriggerPortorCue\main2.c
               StartUnits   0x0031a4    program     extern C:\Users\pete\Desktop\Development\FiringSystemDdevelopment\PIC\HandControllerTriggerPortorCue\main2.c
                GetKeypad   0x0031fa    program     extern C:\Users\pete\Desktop\Development\FiringSystemDdevelopment\PIC\HandControllerTriggerPortorCue\main2.c
                  FireCue   0x003438    program     extern C:\Users\pete\Desktop\Development\FiringSystemDdevelopment\PIC\HandControllerTriggerPortorCue\main2.c
              CheckTimer1   0x003550    program     extern C:\Users\pete\Desktop\Development\FiringSystemDdevelopment\PIC\HandControllerTriggerPortorCue\main2.c
                WriteOLED   0x003572    program     extern C:\Users\pete\Desktop\Development\FiringSystemDdevelopment\PIC\HandControllerTriggerPortorCue\main2.c
                   Scroll   0x0035be    program     extern C:\Users\pete\Desktop\Development\FiringSystemDdevelopment\PIC\HandControllerTriggerPortorCue\main2.c
       GetNextUnitAndPort   0x003a54    program     extern C:\Users\pete\Desktop\Development\FiringSystemDdevelopment\PIC\HandControllerTriggerPortorCue\main2.c
        GetTriggerCommand   0x003ae2    program     extern C:\Users\pete\Desktop\Development\FiringSystemDdevelopment\PIC\HandControllerTriggerPortorCue\main2.c
                 FirePort   0x003c0e    program     extern C:\Users\pete\Desktop\Development\FiringSystemDdevelopment\PIC\HandControllerTriggerPortorCue\main2.c
              TriggerPort   0x003ca8    program     extern C:\Users\pete\Desktop\Development\FiringSystemDdevelopment\PIC\HandControllerTriggerPortorCue\main2.c
               TriggerCue   0x003d42    program     extern C:\Users\pete\Desktop\Development\FiringSystemDdevelopment\PIC\HandControllerTriggerPortorCue\main2.c
                GetSubcmd   0x003de2    program     extern C:\Users\pete\Desktop\Development\FiringSystemDdevelopment\PIC\HandControllerTriggerPortorCue\main2.c
            s_put_n_chars   0x003ea6    program     static E:\c18v3.46\pic18-lt\cxx-framework\src\traditional\stdclib\vfprintf.c
                 vfprintf   0x003ed2    program     extern E:\c18v3.46\pic18-lt\cxx-framework\src\traditional\stdclib\vfprintf.c
              __tmplbl_85   0x003efc    program     static                          
              __tmplbl_44   0x0047aa    program     static                          
              __tmplbl_43   0x0047c4    program     static                          
                   __pa_0   0x0047e6    program     static E:\c18v3.46\pic18-lt\cxx-framework\src\traditional\stdclib\vfprintf.c
                   __pa_1   0x0047ee    program     static E:\c18v3.46\pic18-lt\cxx-framework\src\traditional\stdclib\vfprintf.c
                   __pa_2   0x0047f8    program     static E:\c18v3.46\pic18-lt\cxx-framework\src\traditional\stdclib\vfprintf.c
                   __pa_3   0x004802    program     static E:\c18v3.46\pic18-lt\cxx-framework\src\traditional\stdclib\vfprintf.c
                   __pa_4   0x00481a    program     static E:\c18v3.46\pic18-lt\cxx-framework\src\traditional\stdclib\vfprintf.c
                   __pa_5   0x00482e    program     static E:\c18v3.46\pic18-lt\cxx-framework\src\traditional\stdclib\vfprintf.c
                   __pa_6   0x00484a    program     static E:\c18v3.46\pic18-lt\cxx-framework\src\traditional\stdclib\vfprintf.c
                   __pa_7   0x004854    program     static E:\c18v3.46\pic18-lt\cxx-framework\src\traditional\stdclib\vfprintf.c
                   __pa_8   0x004860    program     static E:\c18v3.46\pic18-lt\cxx-framework\src\traditional\stdclib\vfprintf.c
                   __pa_9   0x004882    program     static E:\c18v3.46\pic18-lt\cxx-framework\src\traditional\stdclib\vfprintf.c
                  __pa_10   0x0048a2    program     static E:\c18v3.46\pic18-lt\cxx-framework\src\traditional\stdclib\vfprintf.c
                  __pa_11   0x0048b0    program     static E:\c18v3.46\pic18-lt\cxx-framework\src\traditional\stdclib\vfprintf.c
                  __pa_12   0x0048c6    program     static E:\c18v3.46\pic18-lt\cxx-framework\src\traditional\stdclib\vfprintf.c
                  __pa_13   0x0048e0    program     static E:\c18v3.46\pic18-lt\cxx-framework\src\traditional\stdclib\vfprintf.c
                  __pa_14   0x0048f8    program     static E:\c18v3.46\pic18-lt\cxx-framework\src\traditional\stdclib\vfprintf.c
                  __pa_15   0x004908    program     static E:\c18v3.46\pic18-lt\cxx-framework\src\traditional\stdclib\vfprintf.c
                  __pa_16   0x00491e    program     static E:\c18v3.46\pic18-lt\cxx-framework\src\traditional\stdclib\vfprintf.c
                  __pa_17   0x004930    program     static E:\c18v3.46\pic18-lt\cxx-framework\src\traditional\stdclib\vfprintf.c
                  __pa_18   0x004942    program     static E:\c18v3.46\pic18-lt\cxx-framework\src\traditional\stdclib\vfprintf.c
                  __pa_19   0x00494c    program     static E:\c18v3.46\pic18-lt\cxx-framework\src\traditional\stdclib\vfprintf.c
                  __pa_20   0x00495c    program     static E:\c18v3.46\pic18-lt\cxx-framework\src\traditional\stdclib\vfprintf.c
                  __pa_21   0x00496c    program     static E:\c18v3.46\pic18-lt\cxx-framework\src\traditional\stdclib\vfprintf.c
                  __pa_22   0x00497c    program     static E:\c18v3.46\pic18-lt\cxx-framework\src\traditional\stdclib\vfprintf.c
              __tmplbl_42   0x00497c    program     static                          
                  __pa_23   0x004988    program     static E:\c18v3.46\pic18-lt\cxx-framework\src\traditional\stdclib\vfprintf.c
                  __pa_24   0x004996    program     static E:\c18v3.46\pic18-lt\cxx-framework\src\traditional\stdclib\vfprintf.c
                  __pa_25   0x00499e    program     static E:\c18v3.46\pic18-lt\cxx-framework\src\traditional\stdclib\vfprintf.c
                  __pa_26   0x0049a8    program     static E:\c18v3.46\pic18-lt\cxx-framework\src\traditional\stdclib\vfprintf.c
                  __pa_27   0x0049b2    program     static E:\c18v3.46\pic18-lt\cxx-framework\src\traditional\stdclib\vfprintf.c
                  __pa_28   0x0049ba    program     static E:\c18v3.46\pic18-lt\cxx-framework\src\traditional\stdclib\vfprintf.c
                  __pa_29   0x0049c8    program     static E:\c18v3.46\pic18-lt\cxx-framework\src\traditional\stdclib\vfprintf.c
                  __pa_30   0x0049e4    program     static E:\c18v3.46\pic18-lt\cxx-framework\src\traditional\stdclib\vfprintf.c
                  __pa_31   0x0049fe    program     static E:\c18v3.46\pic18-lt\cxx-framework\src\traditional\stdclib\vfprintf.c
                  __pa_32   0x004a18    program     static E:\c18v3.46\pic18-lt\cxx-framework\src\traditional\stdclib\vfprintf.c
                  __pa_33   0x004a30    program     static E:\c18v3.46\pic18-lt\cxx-framework\src\traditional\stdclib\vfprintf.c
                  __pa_34   0x004a3a    program     static E:\c18v3.46\pic18-lt\cxx-framework\src\traditional\stdclib\vfprintf.c
                  __pa_35   0x004a48    program     static E:\c18v3.46\pic18-lt\cxx-framework\src\traditional\stdclib\vfprintf.c
                  __pa_36   0x004a50    program     static E:\c18v3.46\pic18-lt\cxx-framework\src\traditional\stdclib\vfprintf.c
                  __pa_37   0x004a5a    program     static E:\c18v3.46\pic18-lt\cxx-framework\src\traditional\stdclib\vfprintf.c
                  __pa_38   0x004a6a    program     static E:\c18v3.46\pic18-lt\cxx-framework\src\traditional\stdclib\vfprintf.c
                  __pa_39   0x004a78    program     static E:\c18v3.46\pic18-lt\cxx-framework\src\traditional\stdclib\vfprintf.c
                  __pa_40   0x004a84    program     static E:\c18v3.46\pic18-lt\cxx-framework\src\traditional\stdclib\vfprintf.c
                  __pa_41   0x004a90    program     static E:\c18v3.46\pic18-lt\cxx-framework\src\traditional\stdclib\vfprintf.c
                  __pa_42   0x004a98    program     static E:\c18v3.46\pic18-lt\cxx-framework\src\traditional\stdclib\vfprintf.c
                  __pa_43   0x004aa2    program     static E:\c18v3.46\pic18-lt\cxx-framework\src\traditional\stdclib\vfprintf.c
                  __pa_44   0x004aa8    program     static E:\c18v3.46\pic18-lt\cxx-framework\src\traditional\stdclib\vfprintf.c
                  __pa_45   0x004ab2    program     static E:\c18v3.46\pic18-lt\cxx-framework\src\traditional\stdclib\vfprintf.c
                  __pa_46   0x004abe    program     static E:\c18v3.46\pic18-lt\cxx-framework\src\traditional\stdclib\vfprintf.c
                   memcpy   0x004ac8    program     extern E:\c18v3.46\pic18-lt\cxx-framework\src\traditional\stdclib\memcpy.asm
                    jLoop   0x004af0    program     static E:\c18v3.46\pic18-lt\cxx-framework\src\traditional\stdclib\memcpy.asm
              _4jContinue   0x004afc    program     static E:\c18v3.46\pic18-lt\cxx-framework\src\traditional\stdclib\memcpy.asm
                   _5jEnd   0x004b06    program     static E:\c18v3.46\pic18-lt\cxx-framework\src\traditional\stdclib\memcpy.asm
                     jEnd   0x004b0c    program     static E:\c18v3.46\pic18-lt\cxx-framework\src\traditional\stdclib\memcpy.asm
                   memset   0x004b1e    program     extern E:\c18v3.46\pic18-lt\cxx-framework\src\traditional\stdclib\memset.asm
                    jLoop   0x004b32    program     static E:\c18v3.46\pic18-lt\cxx-framework\src\traditional\stdclib\memset.asm
              _2jContinue   0x004b3e    program     static E:\c18v3.46\pic18-lt\cxx-framework\src\traditional\stdclib\memset.asm
                   _3jEnd   0x004b48    program     static E:\c18v3.46\pic18-lt\cxx-framework\src\traditional\stdclib\memset.asm
                     jEnd   0x004b50    program     static E:\c18v3.46\pic18-lt\cxx-framework\src\traditional\stdclib\memset.asm
                   strcat   0x004b52    program     extern E:\c18v3.46\pic18-lt\cxx-framework\src\traditional\stdclib\strcat.asm
                jNullLoop   0x004b7a    program     static E:\c18v3.46\pic18-lt\cxx-framework\src\traditional\stdclib\strcat.asm
                    jLoop   0x004b80    program     static E:\c18v3.46\pic18-lt\cxx-framework\src\traditional\stdclib\strcat.asm
                   strcpy   0x004b9a    program     extern E:\c18v3.46\pic18-lt\cxx-framework\src\traditional\stdclib\strcpy.asm
                    jLoop   0x004bc2    program     static E:\c18v3.46\pic18-lt\cxx-framework\src\traditional\stdclib\strcpy.asm
                   strlen   0x004bdc    program     extern E:\c18v3.46\pic18-lt\cxx-framework\src\traditional\stdclib\strlen.asm
                    jLoop   0x004bec    program     static E:\c18v3.46\pic18-lt\cxx-framework\src\traditional\stdclib\strlen.asm
                     jEnd   0x004bf6    program     static E:\c18v3.46\pic18-lt\cxx-framework\src\traditional\stdclib\strlen.asm
                  strncat   0x004bf8    program     extern E:\c18v3.46\pic18-lt\cxx-framework\src\traditional\stdclib\strncat.asm
                jNullLoop   0x004c20    program     static E:\c18v3.46\pic18-lt\cxx-framework\src\traditional\stdclib\strncat.asm
                    jLoop   0x004c26    program     static E:\c18v3.46\pic18-lt\cxx-framework\src\traditional\stdclib\strncat.asm
              _4jContinue   0x004c32    program     static E:\c18v3.46\pic18-lt\cxx-framework\src\traditional\stdclib\strncat.asm
                   _5jEnd   0x004c3c    program     static E:\c18v3.46\pic18-lt\cxx-framework\src\traditional\stdclib\strncat.asm
                    jTerm   0x004c46    program     static E:\c18v3.46\pic18-lt\cxx-framework\src\traditional\stdclib\strncat.asm
                     jEnd   0x004c48    program     static E:\c18v3.46\pic18-lt\cxx-framework\src\traditional\stdclib\strncat.asm
                  strncmp   0x004c5a    program     extern E:\c18v3.46\pic18-lt\cxx-framework\src\traditional\stdclib\strncmp.asm
                    jLoop   0x004c7a    program     static E:\c18v3.46\pic18-lt\cxx-framework\src\traditional\stdclib\strncmp.asm
              _4jContinue   0x004c86    program     static E:\c18v3.46\pic18-lt\cxx-framework\src\traditional\stdclib\strncmp.asm
                   _5jEnd   0x004c90    program     static E:\c18v3.46\pic18-lt\cxx-framework\src\traditional\stdclib\strncmp.asm
                     jEnd   0x004c9a    program     static E:\c18v3.46\pic18-lt\cxx-framework\src\traditional\stdclib\strncmp.asm
                  strncpy   0x004cb0    program     extern E:\c18v3.46\pic18-lt\cxx-framework\src\traditional\stdclib\strncpy.asm
                    jLoop   0x004cd8    program     static E:\c18v3.46\pic18-lt\cxx-framework\src\traditional\stdclib\strncpy.asm
              _4jContinue   0x004ce4    program     static E:\c18v3.46\pic18-lt\cxx-framework\src\traditional\stdclib\strncpy.asm
                   _5jEnd   0x004cee    program     static E:\c18v3.46\pic18-lt\cxx-framework\src\traditional\stdclib\strncpy.asm
                     jEnd   0x004cfa    program     static E:\c18v3.46\pic18-lt\cxx-framework\src\traditional\stdclib\strncpy.asm
                strlenpgm   0x004d0c    program     extern E:\c18v3.46\pic18-lt\cxx-framework\src\traditional\stdclib\slenpgm.asm
                    jLoop   0x004d2a    program     static E:\c18v3.46\pic18-lt\cxx-framework\src\traditional\stdclib\slenpgm.asm
                   _2jEnd   0x004d40    program     static E:\c18v3.46\pic18-lt\cxx-framework\src\traditional\stdclib\slenpgm.asm
                     jEnd   0x004d42    program     static E:\c18v3.46\pic18-lt\cxx-framework\src\traditional\stdclib\slenpgm.asm
              __string_89   0x004d56    program     static C:\Users\pete\Desktop\Development\FiringSystemDdevelopment\PIC\HandControllerTriggerPortorCue\main2.c
              __string_88   0x004d5f    program     static C:\Users\pete\Desktop\Development\FiringSystemDdevelopment\PIC\HandControllerTriggerPortorCue\main2.c
              __string_87   0x004d6d    program     static C:\Users\pete\Desktop\Development\FiringSystemDdevelopment\PIC\HandControllerTriggerPortorCue\main2.c
              __string_86   0x004d76    program     static C:\Users\pete\Desktop\Development\FiringSystemDdevelopment\PIC\HandControllerTriggerPortorCue\main2.c
              __string_81   0x004d81    program     static C:\Users\pete\Desktop\Development\FiringSystemDdevelopment\PIC\HandControllerTriggerPortorCue\main2.c
              __string_80   0x004d86    program     static C:\Users\pete\Desktop\Development\FiringSystemDdevelopment\PIC\HandControllerTriggerPortorCue\main2.c
              __string_79   0x004d8e    program     static C:\Users\pete\Desktop\Development\FiringSystemDdevelopment\PIC\HandControllerTriggerPortorCue\main2.c
              __string_78   0x004d93    program     static C:\Users\pete\Desktop\Development\FiringSystemDdevelopment\PIC\HandControllerTriggerPortorCue\main2.c
              __string_77   0x004da5    program     static C:\Users\pete\Desktop\Development\FiringSystemDdevelopment\PIC\HandControllerTriggerPortorCue\main2.c
              __string_76   0x004db2    program     static C:\Users\pete\Desktop\Development\FiringSystemDdevelopment\PIC\HandControllerTriggerPortorCue\main2.c
              __string_75   0x004dbd    program     static C:\Users\pete\Desktop\Development\FiringSystemDdevelopment\PIC\HandControllerTriggerPortorCue\main2.c
              __string_74   0x004dc8    program     static C:\Users\pete\Desktop\Development\FiringSystemDdevelopment\PIC\HandControllerTriggerPortorCue\main2.c
              __string_73   0x004dd3    program     static C:\Users\pete\Desktop\Development\FiringSystemDdevelopment\PIC\HandControllerTriggerPortorCue\main2.c
              __string_72   0x004ddb    program     static C:\Users\pete\Desktop\Development\FiringSystemDdevelopment\PIC\HandControllerTriggerPortorCue\main2.c
              __string_71   0x004de5    program     static C:\Users\pete\Desktop\Development\FiringSystemDdevelopment\PIC\HandControllerTriggerPortorCue\main2.c
              __string_69   0x004df5    program     static C:\Users\pete\Desktop\Development\FiringSystemDdevelopment\PIC\HandControllerTriggerPortorCue\main2.c
              __string_68   0x004e02    program     static C:\Users\pete\Desktop\Development\FiringSystemDdevelopment\PIC\HandControllerTriggerPortorCue\main2.c
              __string_67   0x004e13    program     static C:\Users\pete\Desktop\Development\FiringSystemDdevelopment\PIC\HandControllerTriggerPortorCue\main2.c
              __string_66   0x004e1f    program     static C:\Users\pete\Desktop\Development\FiringSystemDdevelopment\PIC\HandControllerTriggerPortorCue\main2.c
              __string_65   0x004e2f    program     static C:\Users\pete\Desktop\Development\FiringSystemDdevelopment\PIC\HandControllerTriggerPortorCue\main2.c
              __string_64   0x004e38    program     static C:\Users\pete\Desktop\Development\FiringSystemDdevelopment\PIC\HandControllerTriggerPortorCue\main2.c
                     atoi   0x004e48    program     extern E:\c18v3.46\pic18-lt\cxx-framework\src\traditional\stdclib\atoi.asm
                  jSkipWS   0x004e76    program     static E:\c18v3.46\pic18-lt\cxx-framework\src\traditional\stdclib\atoi.asm
                 jSkipWS1   0x004e88    program     static E:\c18v3.46\pic18-lt\cxx-framework\src\traditional\stdclib\atoi.asm
                 jTstSign   0x004e8c    program     static E:\c18v3.46\pic18-lt\cxx-framework\src\traditional\stdclib\atoi.asm
                jTstSign1   0x004e98    program     static E:\c18v3.46\pic18-lt\cxx-framework\src\traditional\stdclib\atoi.asm
                jTstSign2   0x004e9e    program     static E:\c18v3.46\pic18-lt\cxx-framework\src\traditional\stdclib\atoi.asm
                    jLoop   0x004ea0    program     static E:\c18v3.46\pic18-lt\cxx-framework\src\traditional\stdclib\atoi.asm
                jTstSign3   0x004ea0    program     static E:\c18v3.46\pic18-lt\cxx-framework\src\traditional\stdclib\atoi.asm
                 jEndLoop   0x004eee    program     static E:\c18v3.46\pic18-lt\cxx-framework\src\traditional\stdclib\atoi.asm
                     jEnd   0x004f06    program     static E:\c18v3.46\pic18-lt\cxx-framework\src\traditional\stdclib\atoi.asm
                  sprintf   0x004f32    program     extern E:\c18v3.46\pic18-lt\cxx-framework\src\traditional\stdclib\sprintf.c
                 FXD1616S   0x004fde    program     extern E:\c18v3.46\pic18-lt\cxx-framework\src\traditional\math\fxd1616s.asm
                  DA1616S   0x004ff0    program     static E:\c18v3.46\pic18-lt\cxx-framework\src\traditional\math\fxd1616s.asm
                   D1616S   0x005000    program     static E:\c18v3.46\pic18-lt\cxx-framework\src\traditional\math\fxd1616s.asm
                 D1616SOK   0x00500a    program     static E:\c18v3.46\pic18-lt\cxx-framework\src\traditional\math\fxd1616s.asm
                D1616SNEG   0x00500e    program     static E:\c18v3.46\pic18-lt\cxx-framework\src\traditional\math\fxd1616s.asm
                  D1616SX   0x005020    program     static E:\c18v3.46\pic18-lt\cxx-framework\src\traditional\math\fxd1616s.asm
                 FXM1616S   0x00502a    program     extern E:\c18v3.46\pic18-lt\cxx-framework\src\traditional\math\fxm1616s.asm
               TSIGN1616A   0x005076    program     static E:\c18v3.46\pic18-lt\cxx-framework\src\traditional\math\fxm1616s.asm
                _do_cinit   0x005084    program     extern E:\c18v3.46\pic18-lt\cxx-framework\src\traditional\startup\c018i.c
                     test   0x00509e    program     static                          
                copy_loop   0x0050f6    program     static                          
            copy_one_byte   0x0050fc    program     static                          
             done_copying   0x00510a    program     static                          
       ___return_lbl00002   0x005120    program     static                          
                     done   0x005120    program     static                          
                     putc   0x005122    program     extern E:\c18v3.46\pic18-lt\cxx-framework\src\traditional\stdclib\putc.c
               Open2USART   0x0051a6    program     extern C:\Users\pete\Desktop\Development\FiringSystemDdevelopment\PIC\HandControllerTriggerPortorCue\u2open.c
                  FXM3232   0x005226    program     extern E:\c18v3.46\pic18-lt\cxx-framework\src\traditional\math\fxm3232.c
       ___return_lbl00000   0x005294    program     static                          
              Write_b_eep   0x005296    program     extern C:\Users\pete\Desktop\Development\FiringSystemDdevelopment\PIC\HandControllerTriggerPortorCue\write_B.c
               OpenTimer1   0x0052f4    program     extern E:\c18v3.46\pic18-lt\cxx-framework\src\pmc_common\Timers\t1open.c
                 FXD3232U   0x005348    program     extern E:\c18v3.46\pic18-lt\cxx-framework\src\traditional\math\fxd3232u.c
                     loop   0x005356    program     static                          
                   _false   0x00538a    program     static                          
       ___return_lbl00000   0x00538e    program     static                          
              WriteTimer1   0x005390    program     extern E:\c18v3.46\pic18-lt\cxx-framework\src\pmc_common\Timers\t1write.c
              WriteTimer0   0x0053c8    program     extern E:\c18v3.46\pic18-lt\cxx-framework\src\pmc_common\Timers\t0write.c
               OpenTimer0   0x005400    program     extern E:\c18v3.46\pic18-lt\cxx-framework\src\pmc_common\Timers\t0open.c
              Write2USART   0x005438    program     extern E:\c18v3.46\pic18-lt\cxx-framework\src\pmc_common\USART\u2write.c
              Write1USART   0x005466    program     extern E:\c18v3.46\pic18-lt\cxx-framework\src\pmc_common\USART\u1write.c
                 FXD1616U   0x005494    program     extern E:\c18v3.46\pic18-lt\cxx-framework\src\traditional\math\fxd1616u.c
                     loop   0x00549e    program     static                          
                  endloop   0x0054ba    program     static                          
       ___return_lbl00000   0x0054be    program     static                          
                  isdigit   0x0054c0    program     extern E:\c18v3.46\pic18-lt\cxx-framework\src\traditional\stdclib\isdigit.asm
                   jMatch   0x0054e0    program     static E:\c18v3.46\pic18-lt\cxx-framework\src\traditional\stdclib\isdigit.asm
                 jNoMatch   0x0054e2    program     static E:\c18v3.46\pic18-lt\cxx-framework\src\traditional\stdclib\isdigit.asm
            __zero_memory   0x0054e4    program     extern E:\c18v3.46\pic18-lt\cxx-framework\src\traditional\proc\p18lf25k80.asm
               zero_block   0x0054f2    program     static E:\c18v3.46\pic18-lt\cxx-framework\src\traditional\proc\p18lf25k80.asm
                   loop_h   0x0054f2    program     static E:\c18v3.46\pic18-lt\cxx-framework\src\traditional\proc\p18lf25k80.asm
                compare_l   0x0054fa    program     static E:\c18v3.46\pic18-lt\cxx-framework\src\traditional\proc\p18lf25k80.asm
                   loop_l   0x0054fc    program     static E:\c18v3.46\pic18-lt\cxx-framework\src\traditional\proc\p18lf25k80.asm
                 _startup   0x005504    program     extern E:\c18v3.46\pic18-lt\cxx-framework\src\traditional\startup\c018i.c
                     loop   0x005514    program     static                          
       ___return_lbl00001   0x00551e    program     static                          
              _usart_putc   0x005520    program     extern E:\c18v3.46\pic18-lt\cxx-framework\src\pmc_common\USART\_usartpc.asm
                     loop   0x005530    program     static E:\c18v3.46\pic18-lt\cxx-framework\src\pmc_common\USART\_usartpc.asm
             Delay100TCYx   0x00553c    program     extern E:\c18v3.46\pic18-lt\cxx-framework\src\traditional\delays\d100tcyx.asm
       _D100TCYXCODE_0008   0x005544    program     static E:\c18v3.46\pic18-lt\cxx-framework\src\traditional\delays\d100tcyx.asm
                    D100x   0x005548    program     static E:\c18v3.46\pic18-lt\cxx-framework\src\traditional\delays\d100tcyx.asm
                   D100_1   0x00554a    program     static E:\c18v3.46\pic18-lt\cxx-framework\src\traditional\delays\d100tcyx.asm
       _D100TCYXCODE_0012   0x00554e    program     static E:\c18v3.46\pic18-lt\cxx-framework\src\traditional\delays\d100tcyx.asm
       _D100TCYXCODE_0018   0x005554    program     static E:\c18v3.46\pic18-lt\cxx-framework\src\traditional\delays\d100tcyx.asm
                 s_digits   0x005558    program     static E:\c18v3.46\pic18-lt\cxx-framework\src\traditional\stdclib\vfprintf.c
                 Busy_eep   0x00556a    program     extern C:\Users\pete\Desktop\Development\FiringSystemDdevelopment\PIC\HandControllerTriggerPortorCue\busy_eep.c
                   __init   0x005570    program     extern E:\c18v3.46\pic18-lt\cxx-framework\src\traditional\stdclib\__init.c
               __config_0   0x300000    program     static C:\Users\pete\Desktop\Development\FiringSystemDdevelopment\PIC\HandControllerTriggerPortorCue\main2.c
               __config_1   0x300001    program     static C:\Users\pete\Desktop\Development\FiringSystemDdevelopment\PIC\HandControllerTriggerPortorCue\main2.c
               __config_2   0x300003    program     static C:\Users\pete\Desktop\Development\FiringSystemDdevelopment\PIC\HandControllerTriggerPortorCue\main2.c
                     SIGN   0x000000       data     extern E:\c18v3.46\pic18-lt\cxx-framework\src\traditional\math\cmath18.asm
            __FPFLAGSbits   0x000001       data     extern E:\c18v3.46\pic18-lt\cxx-framework\src\traditional\math\cmath18.asm
                __FPFLAGS   0x000001       data     extern E:\c18v3.46\pic18-lt\cxx-framework\src\traditional\math\cmath18.asm
                 __AARGB7   0x000002       data     extern E:\c18v3.46\pic18-lt\cxx-framework\src\traditional\math\aarg.asm
                  __REMB3   0x000002       data     extern E:\c18v3.46\pic18-lt\cxx-framework\src\traditional\math\aarg.asm
                 __AARGB6   0x000003       data     extern E:\c18v3.46\pic18-lt\cxx-framework\src\traditional\math\aarg.asm
                  __REMB2   0x000003       data     extern E:\c18v3.46\pic18-lt\cxx-framework\src\traditional\math\aarg.asm
                 __AARGB5   0x000004       data     extern E:\c18v3.46\pic18-lt\cxx-framework\src\traditional\math\aarg.asm
                  __REMB1   0x000004       data     extern E:\c18v3.46\pic18-lt\cxx-framework\src\traditional\math\aarg.asm
                 __AARGB4   0x000005       data     extern E:\c18v3.46\pic18-lt\cxx-framework\src\traditional\math\aarg.asm
                  __REMB0   0x000005       data     extern E:\c18v3.46\pic18-lt\cxx-framework\src\traditional\math\aarg.asm
                 __AARGB3   0x000006       data     extern E:\c18v3.46\pic18-lt\cxx-framework\src\traditional\math\aarg.asm
                 __AARGB2   0x000007       data     extern E:\c18v3.46\pic18-lt\cxx-framework\src\traditional\math\aarg.asm
                 __AARGB1   0x000008       data     extern E:\c18v3.46\pic18-lt\cxx-framework\src\traditional\math\aarg.asm
                 __AARGB0   0x000009       data     extern E:\c18v3.46\pic18-lt\cxx-framework\src\traditional\math\aarg.asm
                   __AEXP   0x00000a       data     extern E:\c18v3.46\pic18-lt\cxx-framework\src\traditional\math\aarg.asm
                 __BARGB3   0x00000b       data     extern E:\c18v3.46\pic18-lt\cxx-framework\src\traditional\math\barg.asm
                 __BARGB2   0x00000c       data     extern E:\c18v3.46\pic18-lt\cxx-framework\src\traditional\math\barg.asm
                 __BARGB1   0x00000d       data     extern E:\c18v3.46\pic18-lt\cxx-framework\src\traditional\math\barg.asm
                 __BARGB0   0x00000e       data     extern E:\c18v3.46\pic18-lt\cxx-framework\src\traditional\math\barg.asm
                   __BEXP   0x00000f       data     extern E:\c18v3.46\pic18-lt\cxx-framework\src\traditional\math\barg.asm
                 __TEMPB3   0x000010       data     extern E:\c18v3.46\pic18-lt\cxx-framework\src\traditional\math\temparg.asm
                 __TEMPB2   0x000011       data     extern E:\c18v3.46\pic18-lt\cxx-framework\src\traditional\math\temparg.asm
                 __TEMPB1   0x000012       data     extern E:\c18v3.46\pic18-lt\cxx-framework\src\traditional\math\temparg.asm
                   __TEMP   0x000013       data     extern E:\c18v3.46\pic18-lt\cxx-framework\src\traditional\math\temparg.asm
                 __TEMPB0   0x000013       data     extern E:\c18v3.46\pic18-lt\cxx-framework\src\traditional\math\temparg.asm
                  __tmp_0   0x000014       data     static E:\c18v3.46\pic18-lt\cxx-framework\src\traditional\stdclib\sprintf.c
                  __tmp_0   0x000014       data     static E:\c18v3.46\pic18-lt\cxx-framework\src\traditional\stdclib\vfprintf.c
                  __tmp_0   0x000014       data     static E:\c18v3.46\pic18-lt\cxx-framework\src\traditional\stdclib\putc.c
                  __tmp_0   0x000014       data     static C:\Users\pete\Desktop\Development\FiringSystemDdevelopment\PIC\HandControllerTriggerPortorCue\u2open.c
                  __tmp_0   0x000014       data     static C:\Users\pete\Desktop\Development\FiringSystemDdevelopment\PIC\HandControllerTriggerPortorCue\main2.c
                  __tmp_0   0x000014       data     static C:\Users\pete\Desktop\Development\FiringSystemDdevelopment\PIC\HandControllerTriggerPortorCue\write_B.c
                  __tmp_1   0x000020       data     static C:\Users\pete\Desktop\Development\FiringSystemDdevelopment\PIC\HandControllerTriggerPortorCue\main2.c
            DelayCounter1   0x000022       data     extern E:\c18v3.46\pic18-lt\cxx-framework\src\traditional\delays\delayd1.asm
               WorkBuffer   0x000060       data     extern C:\Users\pete\Desktop\Development\FiringSystemDdevelopment\PIC\HandControllerTriggerPortorCue\main2.c
                   CUart1   0x0000aa       data     static C:\Users\pete\Desktop\Development\FiringSystemDdevelopment\PIC\HandControllerTriggerPortorCue\cranwellP18F25K80.h
                    uptr1   0x0000ab       data     static C:\Users\pete\Desktop\Development\FiringSystemDdevelopment\PIC\HandControllerTriggerPortorCue\cranwellP18F25K80.h
                   CUart2   0x0000ad       data     static C:\Users\pete\Desktop\Development\FiringSystemDdevelopment\PIC\HandControllerTriggerPortorCue\cranwellP18F25K80.h
                    uptr2   0x0000ae       data     static C:\Users\pete\Desktop\Development\FiringSystemDdevelopment\PIC\HandControllerTriggerPortorCue\cranwellP18F25K80.h
                 DataLen1   0x0000b0       data     static C:\Users\pete\Desktop\Development\FiringSystemDdevelopment\PIC\HandControllerTriggerPortorCue\cranwellP18F25K80.h
                 DataLen2   0x0000b2       data     static C:\Users\pete\Desktop\Development\FiringSystemDdevelopment\PIC\HandControllerTriggerPortorCue\cranwellP18F25K80.h
                TimerTick   0x0000b4       data     static C:\Users\pete\Desktop\Development\FiringSystemDdevelopment\PIC\HandControllerTriggerPortorCue\cranwellP18F25K80.h
               FSR0H_TEMP   0x0000b6       data     static C:\Users\pete\Desktop\Development\FiringSystemDdevelopment\PIC\HandControllerTriggerPortorCue\cranwellP18F25K80.h
               FSR0L_TEMP   0x0000b8       data     static C:\Users\pete\Desktop\Development\FiringSystemDdevelopment\PIC\HandControllerTriggerPortorCue\cranwellP18F25K80.h
               FSR1H_TEMP   0x0000ba       data     static C:\Users\pete\Desktop\Development\FiringSystemDdevelopment\PIC\HandControllerTriggerPortorCue\cranwellP18F25K80.h
               FSR1L_TEMP   0x0000bc       data     static C:\Users\pete\Desktop\Development\FiringSystemDdevelopment\PIC\HandControllerTriggerPortorCue\cranwellP18F25K80.h
              UARTErrorOR   0x0000be       data     static C:\Users\pete\Desktop\Development\FiringSystemDdevelopment\PIC\HandControllerTriggerPortorCue\cranwellP18F25K80.h
              UARTErrorFR   0x0000c0       data     static C:\Users\pete\Desktop\Development\FiringSystemDdevelopment\PIC\HandControllerTriggerPortorCue\cranwellP18F25K80.h
                        p   0x0000c2       data     static C:\Users\pete\Desktop\Development\FiringSystemDdevelopment\PIC\HandControllerTriggerPortorCue\cranwellP18F25K80.h
                       ii   0x0000c4       data     static C:\Users\pete\Desktop\Development\FiringSystemDdevelopment\PIC\HandControllerTriggerPortorCue\cranwellP18F25K80.h
                      Len   0x0000c6       data     static C:\Users\pete\Desktop\Development\FiringSystemDdevelopment\PIC\HandControllerTriggerPortorCue\cranwellP18F25K80.h
                     prom   0x0000c8       data     static E:\c18v3.46\pic18-lt\cxx-framework\src\traditional\startup\c018i.c
                curr_byte   0x0000cb       data     static E:\c18v3.46\pic18-lt\cxx-framework\src\traditional\startup\c018i.c
               curr_entry   0x0000cd       data     static E:\c18v3.46\pic18-lt\cxx-framework\src\traditional\startup\c018i.c
                 data_ptr   0x0000cf       data     static E:\c18v3.46\pic18-lt\cxx-framework\src\traditional\startup\c018i.c
                    Clear   0x0000d2       data     extern C:\Users\pete\Desktop\Development\FiringSystemDdevelopment\PIC\HandControllerTriggerPortorCue\main2.c
                   BackOn   0x0000d4       data     extern C:\Users\pete\Desktop\Development\FiringSystemDdevelopment\PIC\HandControllerTriggerPortorCue\main2.c
            USART2_Status   0x0000d6       data     extern E:\c18v3.46\pic18-lt\cxx-framework\src\pmc_common\USART\u2defs.c
            USART1_Status   0x0000d7       data     extern E:\c18v3.46\pic18-lt\cxx-framework\src\pmc_common\USART\u1defs.c
                    Line2   0x000100       data     static C:\Users\pete\Desktop\Development\FiringSystemDdevelopment\PIC\HandControllerTriggerPortorCue\main2.c
                RecResult   0x000115       data     static C:\Users\pete\Desktop\Development\FiringSystemDdevelopment\PIC\HandControllerTriggerPortorCue\main2.c
                  intCode   0x000116       data     static C:\Users\pete\Desktop\Development\FiringSystemDdevelopment\PIC\HandControllerTriggerPortorCue\main2.c
                  intPort   0x000118       data     static C:\Users\pete\Desktop\Development\FiringSystemDdevelopment\PIC\HandControllerTriggerPortorCue\main2.c
                  intData   0x00011a       data     static C:\Users\pete\Desktop\Development\FiringSystemDdevelopment\PIC\HandControllerTriggerPortorCue\main2.c
                   iCheck   0x00011c       data     static C:\Users\pete\Desktop\Development\FiringSystemDdevelopment\PIC\HandControllerTriggerPortorCue\main2.c
                        i   0x00011e       data     static C:\Users\pete\Desktop\Development\FiringSystemDdevelopment\PIC\HandControllerTriggerPortorCue\main2.c
                        j   0x00011f       data     static C:\Users\pete\Desktop\Development\FiringSystemDdevelopment\PIC\HandControllerTriggerPortorCue\main2.c
                    iCode   0x000120       data     static C:\Users\pete\Desktop\Development\FiringSystemDdevelopment\PIC\HandControllerTriggerPortorCue\main2.c
                    iUnit   0x000122       data     static C:\Users\pete\Desktop\Development\FiringSystemDdevelopment\PIC\HandControllerTriggerPortorCue\main2.c
                    Retry   0x000124       data     static C:\Users\pete\Desktop\Development\FiringSystemDdevelopment\PIC\HandControllerTriggerPortorCue\main2.c
                       cp   0x000126       data     static C:\Users\pete\Desktop\Development\FiringSystemDdevelopment\PIC\HandControllerTriggerPortorCue\main2.c
   cReceivedMessageNumber   0x000128       data     static C:\Users\pete\Desktop\Development\FiringSystemDdevelopment\PIC\HandControllerTriggerPortorCue\main2.c
   cNextSendMessageNumber   0x00012a       data     static C:\Users\pete\Desktop\Development\FiringSystemDdevelopment\PIC\HandControllerTriggerPortorCue\main2.c
                       RC   0x00012c       data     static C:\Users\pete\Desktop\Development\FiringSystemDdevelopment\PIC\HandControllerTriggerPortorCue\main2.c
                        p   0x00012e       data     static C:\Users\pete\Desktop\Development\FiringSystemDdevelopment\PIC\HandControllerTriggerPortorCue\main2.c
                 TraceMsg   0x000130       data     static C:\Users\pete\Desktop\Development\FiringSystemDdevelopment\PIC\HandControllerTriggerPortorCue\main2.c
                  WorkMsg   0x000179       data     static C:\Users\pete\Desktop\Development\FiringSystemDdevelopment\PIC\HandControllerTriggerPortorCue\main2.c
                UnitIndex   0x00018f       data     static C:\Users\pete\Desktop\Development\FiringSystemDdevelopment\PIC\HandControllerTriggerPortorCue\main2.c
              SlowPollTOT   0x000191       data     static C:\Users\pete\Desktop\Development\FiringSystemDdevelopment\PIC\HandControllerTriggerPortorCue\main2.c
                      Key   0x000193       data     extern C:\Users\pete\Desktop\Development\FiringSystemDdevelopment\PIC\HandControllerTriggerPortorCue\main2.c
                     Key2   0x000194       data     extern C:\Users\pete\Desktop\Development\FiringSystemDdevelopment\PIC\HandControllerTriggerPortorCue\main2.c
                 UnitData   0x000195       data     static C:\Users\pete\Desktop\Development\FiringSystemDdevelopment\PIC\HandControllerTriggerPortorCue\main2.c
                  FullMsg   0x0005af       data     static C:\Users\pete\Desktop\Development\FiringSystemDdevelopment\PIC\HandControllerTriggerPortorCue\main2.c
               RadioReply   0x0006b0       data     static C:\Users\pete\Desktop\Development\FiringSystemDdevelopment\PIC\HandControllerTriggerPortorCue\main2.c
                   Status   0x0006e0       data     static C:\Users\pete\Desktop\Development\FiringSystemDdevelopment\PIC\HandControllerTriggerPortorCue\main2.c
                    Pedal   0x000707       data     static C:\Users\pete\Desktop\Development\FiringSystemDdevelopment\PIC\HandControllerTriggerPortorCue\main2.c
                    Ascii   0x000708       data     static C:\Users\pete\Desktop\Development\FiringSystemDdevelopment\PIC\HandControllerTriggerPortorCue\main2.c
                NumEvents   0x00070c       data     static C:\Users\pete\Desktop\Development\FiringSystemDdevelopment\PIC\HandControllerTriggerPortorCue\main2.c
                  NumCues   0x00070e       data     static C:\Users\pete\Desktop\Development\FiringSystemDdevelopment\PIC\HandControllerTriggerPortorCue\main2.c
                        n   0x000710       data     static C:\Users\pete\Desktop\Development\FiringSystemDdevelopment\PIC\HandControllerTriggerPortorCue\main2.c
               PORTBValue   0x000712       data     static C:\Users\pete\Desktop\Development\FiringSystemDdevelopment\PIC\HandControllerTriggerPortorCue\main2.c
                      ROW   0x000713       data     static C:\Users\pete\Desktop\Development\FiringSystemDdevelopment\PIC\HandControllerTriggerPortorCue\main2.c
                      COL   0x000715       data     static C:\Users\pete\Desktop\Development\FiringSystemDdevelopment\PIC\HandControllerTriggerPortorCue\main2.c
                     CHAR   0x000717       data     static C:\Users\pete\Desktop\Development\FiringSystemDdevelopment\PIC\HandControllerTriggerPortorCue\main2.c
              HighestUnit   0x000718       data     static C:\Users\pete\Desktop\Development\FiringSystemDdevelopment\PIC\HandControllerTriggerPortorCue\main2.c
                  KbdChar   0x00071a       data     static C:\Users\pete\Desktop\Development\FiringSystemDdevelopment\PIC\HandControllerTriggerPortorCue\main2.c
                    KChar   0x00071b       data     static C:\Users\pete\Desktop\Development\FiringSystemDdevelopment\PIC\HandControllerTriggerPortorCue\main2.c
                   ShowID   0x00071c       data     static C:\Users\pete\Desktop\Development\FiringSystemDdevelopment\PIC\HandControllerTriggerPortorCue\main2.c
                      div   0x00071d       data     static C:\Users\pete\Desktop\Development\FiringSystemDdevelopment\PIC\HandControllerTriggerPortorCue\main2.c
                     str1   0x00071f       data     static C:\Users\pete\Desktop\Development\FiringSystemDdevelopment\PIC\HandControllerTriggerPortorCue\main2.c
                     str2   0x000729       data     static C:\Users\pete\Desktop\Development\FiringSystemDdevelopment\PIC\HandControllerTriggerPortorCue\main2.c
               UnitToFire   0x000733       data     static C:\Users\pete\Desktop\Development\FiringSystemDdevelopment\PIC\HandControllerTriggerPortorCue\main2.c
               PortToFire   0x000735       data     static C:\Users\pete\Desktop\Development\FiringSystemDdevelopment\PIC\HandControllerTriggerPortorCue\main2.c
                       ii   0x000737       data     static C:\Users\pete\Desktop\Development\FiringSystemDdevelopment\PIC\HandControllerTriggerPortorCue\main2.c
                      Len   0x000739       data     static C:\Users\pete\Desktop\Development\FiringSystemDdevelopment\PIC\HandControllerTriggerPortorCue\main2.c
                      Len   0x00073b       data     static C:\Users\pete\Desktop\Development\FiringSystemDdevelopment\PIC\HandControllerTriggerPortorCue\main2.c
                      sum   0x00073d       data     static C:\Users\pete\Desktop\Development\FiringSystemDdevelopment\PIC\HandControllerTriggerPortorCue\main2.c
                        i   0x00073f       data     static C:\Users\pete\Desktop\Development\FiringSystemDdevelopment\PIC\HandControllerTriggerPortorCue\main2.c
                        d   0x000741       data     static C:\Users\pete\Desktop\Development\FiringSystemDdevelopment\PIC\HandControllerTriggerPortorCue\main2.c
                        c   0x000743       data     static C:\Users\pete\Desktop\Development\FiringSystemDdevelopment\PIC\HandControllerTriggerPortorCue\main2.c
                       cd   0x000745       data     static C:\Users\pete\Desktop\Development\FiringSystemDdevelopment\PIC\HandControllerTriggerPortorCue\main2.c
                  IntTemp   0x000747       data     static C:\Users\pete\Desktop\Development\FiringSystemDdevelopment\PIC\HandControllerTriggerPortorCue\main2.c
                    cTemp   0x000749       data     static C:\Users\pete\Desktop\Development\FiringSystemDdevelopment\PIC\HandControllerTriggerPortorCue\main2.c
                      Len   0x00074b       data     static C:\Users\pete\Desktop\Development\FiringSystemDdevelopment\PIC\HandControllerTriggerPortorCue\main2.c
                        i   0x00074d       data     static C:\Users\pete\Desktop\Development\FiringSystemDdevelopment\PIC\HandControllerTriggerPortorCue\main2.c
                      Len   0x00074f       data     static C:\Users\pete\Desktop\Development\FiringSystemDdevelopment\PIC\HandControllerTriggerPortorCue\main2.c
                      Len   0x000751       data     static C:\Users\pete\Desktop\Development\FiringSystemDdevelopment\PIC\HandControllerTriggerPortorCue\main2.c
                      Len   0x000753       data     static C:\Users\pete\Desktop\Development\FiringSystemDdevelopment\PIC\HandControllerTriggerPortorCue\main2.c
              WorkMessage   0x000755       data     static C:\Users\pete\Desktop\Development\FiringSystemDdevelopment\PIC\HandControllerTriggerPortorCue\main2.c
                    iUnit   0x00075f       data     static C:\Users\pete\Desktop\Development\FiringSystemDdevelopment\PIC\HandControllerTriggerPortorCue\main2.c
                 uartdata   0x000761       data     extern C:\Users\pete\Desktop\Development\FiringSystemDdevelopment\PIC\HandControllerTriggerPortorCue\uartdata.asm
                 BitCount   0x000762       data     extern C:\Users\pete\Desktop\Development\FiringSystemDdevelopment\PIC\HandControllerTriggerPortorCue\uartdata.asm
                Msg1Ready   0x000764       data     extern C:\Users\pete\Desktop\Development\FiringSystemDdevelopment\PIC\HandControllerTriggerPortorCue\uartdata.asm
                Msg2Ready   0x000766       data     extern C:\Users\pete\Desktop\Development\FiringSystemDdevelopment\PIC\HandControllerTriggerPortorCue\uartdata.asm
                 ClockCtr   0x000768       data     extern C:\Users\pete\Desktop\Development\FiringSystemDdevelopment\PIC\HandControllerTriggerPortorCue\uartdata.asm
                  Buffer1   0x00076c       data     extern C:\Users\pete\Desktop\Development\FiringSystemDdevelopment\PIC\HandControllerTriggerPortorCue\uartdata.asm
                  Buffer2   0x00088e       data     extern C:\Users\pete\Desktop\Development\FiringSystemDdevelopment\PIC\HandControllerTriggerPortorCue\uartdata.asm
                   LCDptr   0x000a00       data     extern C:\Users\pete\Desktop\Development\FiringSystemDdevelopment\PIC\HandControllerTriggerPortorCue\main2.c
          GlobalResetData   0x000a02       data     static C:\Users\pete\Desktop\Development\FiringSystemDdevelopment\PIC\HandControllerTriggerPortorCue\main2.c
                  TimeMsg   0x000a16       data     static C:\Users\pete\Desktop\Development\FiringSystemDdevelopment\PIC\HandControllerTriggerPortorCue\main2.c
           GlobalLoadShow   0x000a2a       data     static C:\Users\pete\Desktop\Development\FiringSystemDdevelopment\PIC\HandControllerTriggerPortorCue\main2.c
             GlobalArmMsg   0x000a3e       data     static C:\Users\pete\Desktop\Development\FiringSystemDdevelopment\PIC\HandControllerTriggerPortorCue\main2.c
          GlobalDisarmMsg   0x000a52       data     static C:\Users\pete\Desktop\Development\FiringSystemDdevelopment\PIC\HandControllerTriggerPortorCue\main2.c
         GlobalFireCueMsg   0x000a66       data     static C:\Users\pete\Desktop\Development\FiringSystemDdevelopment\PIC\HandControllerTriggerPortorCue\main2.c
              FastPollMsg   0x000a7a       data     static C:\Users\pete\Desktop\Development\FiringSystemDdevelopment\PIC\HandControllerTriggerPortorCue\main2.c
              SlowPollMsg   0x000aa4       data     static C:\Users\pete\Desktop\Development\FiringSystemDdevelopment\PIC\HandControllerTriggerPortorCue\main2.c
         SlowPollDelayMsg   0x000ace       data     static C:\Users\pete\Desktop\Development\FiringSystemDdevelopment\PIC\HandControllerTriggerPortorCue\main2.c
                   cdigit   0x000ada       data     static C:\Users\pete\Desktop\Development\FiringSystemDdevelopment\PIC\HandControllerTriggerPortorCue\main2.c
                    Reset   0x000adc       data     static C:\Users\pete\Desktop\Development\FiringSystemDdevelopment\PIC\HandControllerTriggerPortorCue\main2.c
                  Command   0x000adf       data     static C:\Users\pete\Desktop\Development\FiringSystemDdevelopment\PIC\HandControllerTriggerPortorCue\main2.c
                     Fire   0x000ae1       data     static C:\Users\pete\Desktop\Development\FiringSystemDdevelopment\PIC\HandControllerTriggerPortorCue\main2.c
                      Arm   0x000ae4       data     static C:\Users\pete\Desktop\Development\FiringSystemDdevelopment\PIC\HandControllerTriggerPortorCue\main2.c
                   Disarm   0x000ae7       data     static C:\Users\pete\Desktop\Development\FiringSystemDdevelopment\PIC\HandControllerTriggerPortorCue\main2.c
                    Sense   0x000aea       data     static C:\Users\pete\Desktop\Development\FiringSystemDdevelopment\PIC\HandControllerTriggerPortorCue\main2.c
                     Code   0x000aed       data     static C:\Users\pete\Desktop\Development\FiringSystemDdevelopment\PIC\HandControllerTriggerPortorCue\main2.c
                     Unit   0x000af0       data     static C:\Users\pete\Desktop\Development\FiringSystemDdevelopment\PIC\HandControllerTriggerPortorCue\main2.c
                     Port   0x000af3       data     static C:\Users\pete\Desktop\Development\FiringSystemDdevelopment\PIC\HandControllerTriggerPortorCue\main2.c
                   cCheck   0x000af6       data     static C:\Users\pete\Desktop\Development\FiringSystemDdevelopment\PIC\HandControllerTriggerPortorCue\main2.c
                   LCDMsg   0x000af8       data     static C:\Users\pete\Desktop\Development\FiringSystemDdevelopment\PIC\HandControllerTriggerPortorCue\main2.c
                       CR   0x000b0d       data     static C:\Users\pete\Desktop\Development\FiringSystemDdevelopment\PIC\HandControllerTriggerPortorCue\main2.c
              OneWorkUnit   0x000b0f       data     static C:\Users\pete\Desktop\Development\FiringSystemDdevelopment\PIC\HandControllerTriggerPortorCue\main2.c
                     iCmd   0x000b12       data     extern C:\Users\pete\Desktop\Development\FiringSystemDdevelopment\PIC\HandControllerTriggerPortorCue\main2.c
                  iSubCmd   0x000b14       data     extern C:\Users\pete\Desktop\Development\FiringSystemDdevelopment\PIC\HandControllerTriggerPortorCue\main2.c
                   Zeroes   0x000b16       data     static C:\Users\pete\Desktop\Development\FiringSystemDdevelopment\PIC\HandControllerTriggerPortorCue\main2.c
                 TimeZero   0x000b25       data     static C:\Users\pete\Desktop\Development\FiringSystemDdevelopment\PIC\HandControllerTriggerPortorCue\main2.c
                    Start   0x000b2e       data     static C:\Users\pete\Desktop\Development\FiringSystemDdevelopment\PIC\HandControllerTriggerPortorCue\main2.c
                FirstUnit   0x000b31       data     static C:\Users\pete\Desktop\Development\FiringSystemDdevelopment\PIC\HandControllerTriggerPortorCue\main2.c
            Radioinstring   0x000b34       data     static C:\Users\pete\Desktop\Development\FiringSystemDdevelopment\PIC\HandControllerTriggerPortorCue\main2.c
           Radiooutstring   0x000b39       data     static C:\Users\pete\Desktop\Development\FiringSystemDdevelopment\PIC\HandControllerTriggerPortorCue\main2.c
                     CRLF   0x000b3d       data     static C:\Users\pete\Desktop\Development\FiringSystemDdevelopment\PIC\HandControllerTriggerPortorCue\main2.c
                      TRC   0x000b40       data     static C:\Users\pete\Desktop\Development\FiringSystemDdevelopment\PIC\HandControllerTriggerPortorCue\main2.c
                    Port0   0x000b42       data     static C:\Users\pete\Desktop\Development\FiringSystemDdevelopment\PIC\HandControllerTriggerPortorCue\main2.c
                PianoStat   0x000b45       data     static C:\Users\pete\Desktop\Development\FiringSystemDdevelopment\PIC\HandControllerTriggerPortorCue\main2.c
              NoPianoStat   0x000b4b       data     static C:\Users\pete\Desktop\Development\FiringSystemDdevelopment\PIC\HandControllerTriggerPortorCue\main2.c
                StartStat   0x000b54       data     static C:\Users\pete\Desktop\Development\FiringSystemDdevelopment\PIC\HandControllerTriggerPortorCue\main2.c
                   OKStat   0x000b5a       data     static C:\Users\pete\Desktop\Development\FiringSystemDdevelopment\PIC\HandControllerTriggerPortorCue\main2.c
                   NGStat   0x000b5d       data     static C:\Users\pete\Desktop\Development\FiringSystemDdevelopment\PIC\HandControllerTriggerPortorCue\main2.c
                      CLS   0x000b60       data     static C:\Users\pete\Desktop\Development\FiringSystemDdevelopment\PIC\HandControllerTriggerPortorCue\main2.c
                 ErrorMsg   0x000b62       data     static C:\Users\pete\Desktop\Development\FiringSystemDdevelopment\PIC\HandControllerTriggerPortorCue\main2.c
                      One   0x000b68       data     static C:\Users\pete\Desktop\Development\FiringSystemDdevelopment\PIC\HandControllerTriggerPortorCue\main2.c
                      Two   0x000b6b       data     static C:\Users\pete\Desktop\Development\FiringSystemDdevelopment\PIC\HandControllerTriggerPortorCue\main2.c
                    Three   0x000b6e       data     static C:\Users\pete\Desktop\Development\FiringSystemDdevelopment\PIC\HandControllerTriggerPortorCue\main2.c
                   ArmMsg   0x000b71       data     static C:\Users\pete\Desktop\Development\FiringSystemDdevelopment\PIC\HandControllerTriggerPortorCue\main2.c
                  CharOne   0x000b7e       data     static C:\Users\pete\Desktop\Development\FiringSystemDdevelopment\PIC\HandControllerTriggerPortorCue\main2.c
                  CharTwo   0x000b80       data     static C:\Users\pete\Desktop\Development\FiringSystemDdevelopment\PIC\HandControllerTriggerPortorCue\main2.c
                       k0   0x000b82       data     extern C:\Users\pete\Desktop\Development\FiringSystemDdevelopment\PIC\HandControllerTriggerPortorCue\main2.c
                       k1   0x000b84       data     extern C:\Users\pete\Desktop\Development\FiringSystemDdevelopment\PIC\HandControllerTriggerPortorCue\main2.c
                       k2   0x000b86       data     extern C:\Users\pete\Desktop\Development\FiringSystemDdevelopment\PIC\HandControllerTriggerPortorCue\main2.c
                       k3   0x000b88       data     extern C:\Users\pete\Desktop\Development\FiringSystemDdevelopment\PIC\HandControllerTriggerPortorCue\main2.c
                       k4   0x000b8a       data     extern C:\Users\pete\Desktop\Development\FiringSystemDdevelopment\PIC\HandControllerTriggerPortorCue\main2.c
                       k5   0x000b8c       data     extern C:\Users\pete\Desktop\Development\FiringSystemDdevelopment\PIC\HandControllerTriggerPortorCue\main2.c
                       k6   0x000b8e       data     extern C:\Users\pete\Desktop\Development\FiringSystemDdevelopment\PIC\HandControllerTriggerPortorCue\main2.c
                       k7   0x000b90       data     extern C:\Users\pete\Desktop\Development\FiringSystemDdevelopment\PIC\HandControllerTriggerPortorCue\main2.c
                       k8   0x000b92       data     extern C:\Users\pete\Desktop\Development\FiringSystemDdevelopment\PIC\HandControllerTriggerPortorCue\main2.c
                       k9   0x000b94       data     extern C:\Users\pete\Desktop\Development\FiringSystemDdevelopment\PIC\HandControllerTriggerPortorCue\main2.c
                      k10   0x000b96       data     extern C:\Users\pete\Desktop\Development\FiringSystemDdevelopment\PIC\HandControllerTriggerPortorCue\main2.c
                      k11   0x000b98       data     extern C:\Users\pete\Desktop\Development\FiringSystemDdevelopment\PIC\HandControllerTriggerPortorCue\main2.c
               PedalError   0x000b9a       data     static C:\Users\pete\Desktop\Development\FiringSystemDdevelopment\PIC\HandControllerTriggerPortorCue\main2.c
                      OKc   0x000ba8       data     static C:\Users\pete\Desktop\Development\FiringSystemDdevelopment\PIC\HandControllerTriggerPortorCue\main2.c
                      NGc   0x000bab       data     static C:\Users\pete\Desktop\Development\FiringSystemDdevelopment\PIC\HandControllerTriggerPortorCue\main2.c
                   AckMsg   0x000bae       data     static C:\Users\pete\Desktop\Development\FiringSystemDdevelopment\PIC\HandControllerTriggerPortorCue\main2.c
                   NakMsg   0x000bb2       data     static C:\Users\pete\Desktop\Development\FiringSystemDdevelopment\PIC\HandControllerTriggerPortorCue\main2.c
                    Blank   0x000bb6       data     static C:\Users\pete\Desktop\Development\FiringSystemDdevelopment\PIC\HandControllerTriggerPortorCue\main2.c
                   Serial   0x000bcc       data     static C:\Users\pete\Desktop\Development\FiringSystemDdevelopment\PIC\HandControllerTriggerPortorCue\main2.c
                    Piano   0x000bcd       data     static C:\Users\pete\Desktop\Development\FiringSystemDdevelopment\PIC\HandControllerTriggerPortorCue\main2.c
                    Event   0x000bce       data     static C:\Users\pete\Desktop\Development\FiringSystemDdevelopment\PIC\HandControllerTriggerPortorCue\main2.c
                      ACK   0x000bd0       data     static C:\Users\pete\Desktop\Development\FiringSystemDdevelopment\PIC\HandControllerTriggerPortorCue\main2.c
                    Armed   0x000bd2       data     static C:\Users\pete\Desktop\Development\FiringSystemDdevelopment\PIC\HandControllerTriggerPortorCue\main2.c
                   Keypad   0x000bd3       data     static C:\Users\pete\Desktop\Development\FiringSystemDdevelopment\PIC\HandControllerTriggerPortorCue\main2.c
                 KbdReset   0x000be3       data     static C:\Users\pete\Desktop\Development\FiringSystemDdevelopment\PIC\HandControllerTriggerPortorCue\main2.c
                      Msg   0x000be5       data     static C:\Users\pete\Desktop\Development\FiringSystemDdevelopment\PIC\HandControllerTriggerPortorCue\main2.c
                    Show1   0x000be8       data     static C:\Users\pete\Desktop\Development\FiringSystemDdevelopment\PIC\HandControllerTriggerPortorCue\main2.c
                    Show2   0x000bec       data     static C:\Users\pete\Desktop\Development\FiringSystemDdevelopment\PIC\HandControllerTriggerPortorCue\main2.c
                    Show3   0x000bf0       data     static C:\Users\pete\Desktop\Development\FiringSystemDdevelopment\PIC\HandControllerTriggerPortorCue\main2.c
                   ToLoad   0x000bf4       data     static C:\Users\pete\Desktop\Development\FiringSystemDdevelopment\PIC\HandControllerTriggerPortorCue\main2.c
              StartingMsg   0x000bf8       data     static C:\Users\pete\Desktop\Development\FiringSystemDdevelopment\PIC\HandControllerTriggerPortorCue\main2.c
                  Offline   0x000c08       data     static C:\Users\pete\Desktop\Development\FiringSystemDdevelopment\PIC\HandControllerTriggerPortorCue\main2.c
               CommandMsg   0x000c18       data     static C:\Users\pete\Desktop\Development\FiringSystemDdevelopment\PIC\HandControllerTriggerPortorCue\main2.c
              LoadShowMsg   0x000c28       data     static C:\Users\pete\Desktop\Development\FiringSystemDdevelopment\PIC\HandControllerTriggerPortorCue\main2.c
              ReadyingMsg   0x000c35       data     static C:\Users\pete\Desktop\Development\FiringSystemDdevelopment\PIC\HandControllerTriggerPortorCue\main2.c
               ShowErrMsg   0x000c44       data     static C:\Users\pete\Desktop\Development\FiringSystemDdevelopment\PIC\HandControllerTriggerPortorCue\main2.c
                ShowOKMsg   0x000c52       data     static C:\Users\pete\Desktop\Development\FiringSystemDdevelopment\PIC\HandControllerTriggerPortorCue\main2.c
             StatusErrMsg   0x000c61       data     static C:\Users\pete\Desktop\Development\FiringSystemDdevelopment\PIC\HandControllerTriggerPortorCue\main2.c
              StatusOKMsg   0x000c70       data     static C:\Users\pete\Desktop\Development\FiringSystemDdevelopment\PIC\HandControllerTriggerPortorCue\main2.c
                NoShowMsg   0x000c80       data     static C:\Users\pete\Desktop\Development\FiringSystemDdevelopment\PIC\HandControllerTriggerPortorCue\main2.c
                     Work   0x000c90       data     static C:\Users\pete\Desktop\Development\FiringSystemDdevelopment\PIC\HandControllerTriggerPortorCue\main2.c
                    Work2   0x000c93       data     static C:\Users\pete\Desktop\Development\FiringSystemDdevelopment\PIC\HandControllerTriggerPortorCue\main2.c
                     Secs   0x000ca7       data     static C:\Users\pete\Desktop\Development\FiringSystemDdevelopment\PIC\HandControllerTriggerPortorCue\main2.c
                 CueFired   0x000ca9       data     static C:\Users\pete\Desktop\Development\FiringSystemDdevelopment\PIC\HandControllerTriggerPortorCue\main2.c
                   factor   0x000cab       data     static C:\Users\pete\Desktop\Development\FiringSystemDdevelopment\PIC\HandControllerTriggerPortorCue\main2.c
            ComputedDelay   0x000cb1       data     static C:\Users\pete\Desktop\Development\FiringSystemDdevelopment\PIC\HandControllerTriggerPortorCue\main2.c
             RXERRCNTbits   0x000e41       data     extern E:\c18v3.46\pic18-lt\cxx-framework\src\traditional\proc\p18lf25k80.asm
                 RXERRCNT   0x000e41       data     extern E:\c18v3.46\pic18-lt\cxx-framework\src\traditional\proc\p18lf25k80.asm
             TXERRCNTbits   0x000e42       data     extern E:\c18v3.46\pic18-lt\cxx-framework\src\traditional\proc\p18lf25k80.asm
                 TXERRCNT   0x000e42       data     extern E:\c18v3.46\pic18-lt\cxx-framework\src\traditional\proc\p18lf25k80.asm
                  BRGCON1   0x000e43       data     extern E:\c18v3.46\pic18-lt\cxx-framework\src\traditional\proc\p18lf25k80.asm
              BRGCON1bits   0x000e43       data     extern E:\c18v3.46\pic18-lt\cxx-framework\src\traditional\proc\p18lf25k80.asm
              BRGCON2bits   0x000e44       data     extern E:\c18v3.46\pic18-lt\cxx-framework\src\traditional\proc\p18lf25k80.asm
                  BRGCON2   0x000e44       data     extern E:\c18v3.46\pic18-lt\cxx-framework\src\traditional\proc\p18lf25k80.asm
                  BRGCON3   0x000e45       data     extern E:\c18v3.46\pic18-lt\cxx-framework\src\traditional\proc\p18lf25k80.asm
              BRGCON3bits   0x000e45       data     extern E:\c18v3.46\pic18-lt\cxx-framework\src\traditional\proc\p18lf25k80.asm
              RXFCON0bits   0x000e46       data     extern E:\c18v3.46\pic18-lt\cxx-framework\src\traditional\proc\p18lf25k80.asm
                  RXFCON0   0x000e46       data     extern E:\c18v3.46\pic18-lt\cxx-framework\src\traditional\proc\p18lf25k80.asm
              RXFCON1bits   0x000e47       data     extern E:\c18v3.46\pic18-lt\cxx-framework\src\traditional\proc\p18lf25k80.asm
                  RXFCON1   0x000e47       data     extern E:\c18v3.46\pic18-lt\cxx-framework\src\traditional\proc\p18lf25k80.asm
                 RXF6SIDH   0x000e48       data     extern E:\c18v3.46\pic18-lt\cxx-framework\src\traditional\proc\p18lf25k80.asm
             RXF6SIDHbits   0x000e48       data     extern E:\c18v3.46\pic18-lt\cxx-framework\src\traditional\proc\p18lf25k80.asm
                 RXF6SIDL   0x000e49       data     extern E:\c18v3.46\pic18-lt\cxx-framework\src\traditional\proc\p18lf25k80.asm
             RXF6SIDLbits   0x000e49       data     extern E:\c18v3.46\pic18-lt\cxx-framework\src\traditional\proc\p18lf25k80.asm
                 RXF6EIDH   0x000e4a       data     extern E:\c18v3.46\pic18-lt\cxx-framework\src\traditional\proc\p18lf25k80.asm
             RXF6EIDHbits   0x000e4a       data     extern E:\c18v3.46\pic18-lt\cxx-framework\src\traditional\proc\p18lf25k80.asm
             RXF6EIDLbits   0x000e4b       data     extern E:\c18v3.46\pic18-lt\cxx-framework\src\traditional\proc\p18lf25k80.asm
                 RXF6EIDL   0x000e4b       data     extern E:\c18v3.46\pic18-lt\cxx-framework\src\traditional\proc\p18lf25k80.asm
                 RXF7SIDH   0x000e4c       data     extern E:\c18v3.46\pic18-lt\cxx-framework\src\traditional\proc\p18lf25k80.asm
             RXF7SIDHbits   0x000e4c       data     extern E:\c18v3.46\pic18-lt\cxx-framework\src\traditional\proc\p18lf25k80.asm
                 RXF7SIDL   0x000e4d       data     extern E:\c18v3.46\pic18-lt\cxx-framework\src\traditional\proc\p18lf25k80.asm
             RXF7SIDLbits   0x000e4d       data     extern E:\c18v3.46\pic18-lt\cxx-framework\src\traditional\proc\p18lf25k80.asm
             RXF7EIDHbits   0x000e4e       data     extern E:\c18v3.46\pic18-lt\cxx-framework\src\traditional\proc\p18lf25k80.asm
                 RXF7EIDH   0x000e4e       data     extern E:\c18v3.46\pic18-lt\cxx-framework\src\traditional\proc\p18lf25k80.asm
             RXF7EIDLbits   0x000e4f       data     extern E:\c18v3.46\pic18-lt\cxx-framework\src\traditional\proc\p18lf25k80.asm
                 RXF7EIDL   0x000e4f       data     extern E:\c18v3.46\pic18-lt\cxx-framework\src\traditional\proc\p18lf25k80.asm
                 RXF8SIDH   0x000e50       data     extern E:\c18v3.46\pic18-lt\cxx-framework\src\traditional\proc\p18lf25k80.asm
             RXF8SIDHbits   0x000e50       data     extern E:\c18v3.46\pic18-lt\cxx-framework\src\traditional\proc\p18lf25k80.asm
                 RXF8SIDL   0x000e51       data     extern E:\c18v3.46\pic18-lt\cxx-framework\src\traditional\proc\p18lf25k80.asm
             RXF8SIDLbits   0x000e51       data     extern E:\c18v3.46\pic18-lt\cxx-framework\src\traditional\proc\p18lf25k80.asm
             RXF8EIDHbits   0x000e52       data     extern E:\c18v3.46\pic18-lt\cxx-framework\src\traditional\proc\p18lf25k80.asm
                 RXF8EIDH   0x000e52       data     extern E:\c18v3.46\pic18-lt\cxx-framework\src\traditional\proc\p18lf25k80.asm
             RXF8EIDLbits   0x000e53       data     extern E:\c18v3.46\pic18-lt\cxx-framework\src\traditional\proc\p18lf25k80.asm
                 RXF8EIDL   0x000e53       data     extern E:\c18v3.46\pic18-lt\cxx-framework\src\traditional\proc\p18lf25k80.asm
                 RXF9SIDH   0x000e54       data     extern E:\c18v3.46\pic18-lt\cxx-framework\src\traditional\proc\p18lf25k80.asm
             RXF9SIDHbits   0x000e54       data     extern E:\c18v3.46\pic18-lt\cxx-framework\src\traditional\proc\p18lf25k80.asm
                 RXF9SIDL   0x000e55       data     extern E:\c18v3.46\pic18-lt\cxx-framework\src\traditional\proc\p18lf25k80.asm
             RXF9SIDLbits   0x000e55       data     extern E:\c18v3.46\pic18-lt\cxx-framework\src\traditional\proc\p18lf25k80.asm
                 RXF9EIDH   0x000e56       data     extern E:\c18v3.46\pic18-lt\cxx-framework\src\traditional\proc\p18lf25k80.asm
             RXF9EIDHbits   0x000e56       data     extern E:\c18v3.46\pic18-lt\cxx-framework\src\traditional\proc\p18lf25k80.asm
             RXF9EIDLbits   0x000e57       data     extern E:\c18v3.46\pic18-lt\cxx-framework\src\traditional\proc\p18lf25k80.asm
                 RXF9EIDL   0x000e57       data     extern E:\c18v3.46\pic18-lt\cxx-framework\src\traditional\proc\p18lf25k80.asm
                RXF10SIDH   0x000e58       data     extern E:\c18v3.46\pic18-lt\cxx-framework\src\traditional\proc\p18lf25k80.asm
            RXF10SIDHbits   0x000e58       data     extern E:\c18v3.46\pic18-lt\cxx-framework\src\traditional\proc\p18lf25k80.asm
                RXF10SIDL   0x000e59       data     extern E:\c18v3.46\pic18-lt\cxx-framework\src\traditional\proc\p18lf25k80.asm
            RXF10SIDLbits   0x000e59       data     extern E:\c18v3.46\pic18-lt\cxx-framework\src\traditional\proc\p18lf25k80.asm
                RXF10EIDH   0x000e5a       data     extern E:\c18v3.46\pic18-lt\cxx-framework\src\traditional\proc\p18lf25k80.asm
            RXF10EIDHbits   0x000e5a       data     extern E:\c18v3.46\pic18-lt\cxx-framework\src\traditional\proc\p18lf25k80.asm
                RXF10EIDL   0x000e5b       data     extern E:\c18v3.46\pic18-lt\cxx-framework\src\traditional\proc\p18lf25k80.asm
            RXF10EIDLbits   0x000e5b       data     extern E:\c18v3.46\pic18-lt\cxx-framework\src\traditional\proc\p18lf25k80.asm
                RXF11SIDH   0x000e5c       data     extern E:\c18v3.46\pic18-lt\cxx-framework\src\traditional\proc\p18lf25k80.asm
            RXF11SIDHbits   0x000e5c       data     extern E:\c18v3.46\pic18-lt\cxx-framework\src\traditional\proc\p18lf25k80.asm
            RXF11SIDLbits   0x000e5d       data     extern E:\c18v3.46\pic18-lt\cxx-framework\src\traditional\proc\p18lf25k80.asm
                RXF11SIDL   0x000e5d       data     extern E:\c18v3.46\pic18-lt\cxx-framework\src\traditional\proc\p18lf25k80.asm
            RXF11EIDHbits   0x000e5e       data     extern E:\c18v3.46\pic18-lt\cxx-framework\src\traditional\proc\p18lf25k80.asm
                RXF11EIDH   0x000e5e       data     extern E:\c18v3.46\pic18-lt\cxx-framework\src\traditional\proc\p18lf25k80.asm
                RXF11EIDL   0x000e5f       data     extern E:\c18v3.46\pic18-lt\cxx-framework\src\traditional\proc\p18lf25k80.asm
            RXF11EIDLbits   0x000e5f       data     extern E:\c18v3.46\pic18-lt\cxx-framework\src\traditional\proc\p18lf25k80.asm
            RXF12SIDHbits   0x000e60       data     extern E:\c18v3.46\pic18-lt\cxx-framework\src\traditional\proc\p18lf25k80.asm
                RXF12SIDH   0x000e60       data     extern E:\c18v3.46\pic18-lt\cxx-framework\src\traditional\proc\p18lf25k80.asm
            RXF12SIDLbits   0x000e61       data     extern E:\c18v3.46\pic18-lt\cxx-framework\src\traditional\proc\p18lf25k80.asm
                RXF12SIDL   0x000e61       data     extern E:\c18v3.46\pic18-lt\cxx-framework\src\traditional\proc\p18lf25k80.asm
            RXF12EIDHbits   0x000e62       data     extern E:\c18v3.46\pic18-lt\cxx-framework\src\traditional\proc\p18lf25k80.asm
                RXF12EIDH   0x000e62       data     extern E:\c18v3.46\pic18-lt\cxx-framework\src\traditional\proc\p18lf25k80.asm
            RXF12EIDLbits   0x000e63       data     extern E:\c18v3.46\pic18-lt\cxx-framework\src\traditional\proc\p18lf25k80.asm
                RXF12EIDL   0x000e63       data     extern E:\c18v3.46\pic18-lt\cxx-framework\src\traditional\proc\p18lf25k80.asm
                RXF13SIDH   0x000e64       data     extern E:\c18v3.46\pic18-lt\cxx-framework\src\traditional\proc\p18lf25k80.asm
            RXF13SIDHbits   0x000e64       data     extern E:\c18v3.46\pic18-lt\cxx-framework\src\traditional\proc\p18lf25k80.asm
                RXF13SIDL   0x000e65       data     extern E:\c18v3.46\pic18-lt\cxx-framework\src\traditional\proc\p18lf25k80.asm
            RXF13SIDLbits   0x000e65       data     extern E:\c18v3.46\pic18-lt\cxx-framework\src\traditional\proc\p18lf25k80.asm
                RXF13EIDH   0x000e66       data     extern E:\c18v3.46\pic18-lt\cxx-framework\src\traditional\proc\p18lf25k80.asm
            RXF13EIDHbits   0x000e66       data     extern E:\c18v3.46\pic18-lt\cxx-framework\src\traditional\proc\p18lf25k80.asm
                RXF13EIDL   0x000e67       data     extern E:\c18v3.46\pic18-lt\cxx-framework\src\traditional\proc\p18lf25k80.asm
            RXF13EIDLbits   0x000e67       data     extern E:\c18v3.46\pic18-lt\cxx-framework\src\traditional\proc\p18lf25k80.asm
                RXF14SIDH   0x000e68       data     extern E:\c18v3.46\pic18-lt\cxx-framework\src\traditional\proc\p18lf25k80.asm
            RXF14SIDHbits   0x000e68       data     extern E:\c18v3.46\pic18-lt\cxx-framework\src\traditional\proc\p18lf25k80.asm
                RXF14SIDL   0x000e69       data     extern E:\c18v3.46\pic18-lt\cxx-framework\src\traditional\proc\p18lf25k80.asm
            RXF14SIDLbits   0x000e69       data     extern E:\c18v3.46\pic18-lt\cxx-framework\src\traditional\proc\p18lf25k80.asm
                RXF14EIDH   0x000e6a       data     extern E:\c18v3.46\pic18-lt\cxx-framework\src\traditional\proc\p18lf25k80.asm
            RXF14EIDHbits   0x000e6a       data     extern E:\c18v3.46\pic18-lt\cxx-framework\src\traditional\proc\p18lf25k80.asm
                RXF14EIDL   0x000e6b       data     extern E:\c18v3.46\pic18-lt\cxx-framework\src\traditional\proc\p18lf25k80.asm
            RXF14EIDLbits   0x000e6b       data     extern E:\c18v3.46\pic18-lt\cxx-framework\src\traditional\proc\p18lf25k80.asm
            RXF15SIDHbits   0x000e6c       data     extern E:\c18v3.46\pic18-lt\cxx-framework\src\traditional\proc\p18lf25k80.asm
                RXF15SIDH   0x000e6c       data     extern E:\c18v3.46\pic18-lt\cxx-framework\src\traditional\proc\p18lf25k80.asm
                RXF15SIDL   0x000e6d       data     extern E:\c18v3.46\pic18-lt\cxx-framework\src\traditional\proc\p18lf25k80.asm
            RXF15SIDLbits   0x000e6d       data     extern E:\c18v3.46\pic18-lt\cxx-framework\src\traditional\proc\p18lf25k80.asm
            RXF15EIDHbits   0x000e6e       data     extern E:\c18v3.46\pic18-lt\cxx-framework\src\traditional\proc\p18lf25k80.asm
                RXF15EIDH   0x000e6e       data     extern E:\c18v3.46\pic18-lt\cxx-framework\src\traditional\proc\p18lf25k80.asm
                RXF15EIDL   0x000e6f       data     extern E:\c18v3.46\pic18-lt\cxx-framework\src\traditional\proc\p18lf25k80.asm
            RXF15EIDLbits   0x000e6f       data     extern E:\c18v3.46\pic18-lt\cxx-framework\src\traditional\proc\p18lf25k80.asm
                SDFLCbits   0x000e70       data     extern E:\c18v3.46\pic18-lt\cxx-framework\src\traditional\proc\p18lf25k80.asm
                    SDFLC   0x000e70       data     extern E:\c18v3.46\pic18-lt\cxx-framework\src\traditional\proc\p18lf25k80.asm
                 RXFBCON0   0x000e71       data     extern E:\c18v3.46\pic18-lt\cxx-framework\src\traditional\proc\p18lf25k80.asm
             RXFBCON0bits   0x000e71       data     extern E:\c18v3.46\pic18-lt\cxx-framework\src\traditional\proc\p18lf25k80.asm
             RXFBCON1bits   0x000e72       data     extern E:\c18v3.46\pic18-lt\cxx-framework\src\traditional\proc\p18lf25k80.asm
                 RXFBCON1   0x000e72       data     extern E:\c18v3.46\pic18-lt\cxx-framework\src\traditional\proc\p18lf25k80.asm
             RXFBCON2bits   0x000e73       data     extern E:\c18v3.46\pic18-lt\cxx-framework\src\traditional\proc\p18lf25k80.asm
                 RXFBCON2   0x000e73       data     extern E:\c18v3.46\pic18-lt\cxx-framework\src\traditional\proc\p18lf25k80.asm
                 RXFBCON3   0x000e74       data     extern E:\c18v3.46\pic18-lt\cxx-framework\src\traditional\proc\p18lf25k80.asm
             RXFBCON3bits   0x000e74       data     extern E:\c18v3.46\pic18-lt\cxx-framework\src\traditional\proc\p18lf25k80.asm
                 RXFBCON4   0x000e75       data     extern E:\c18v3.46\pic18-lt\cxx-framework\src\traditional\proc\p18lf25k80.asm
             RXFBCON4bits   0x000e75       data     extern E:\c18v3.46\pic18-lt\cxx-framework\src\traditional\proc\p18lf25k80.asm
                 RXFBCON5   0x000e76       data     extern E:\c18v3.46\pic18-lt\cxx-framework\src\traditional\proc\p18lf25k80.asm
             RXFBCON5bits   0x000e76       data     extern E:\c18v3.46\pic18-lt\cxx-framework\src\traditional\proc\p18lf25k80.asm
                 RXFBCON6   0x000e77       data     extern E:\c18v3.46\pic18-lt\cxx-framework\src\traditional\proc\p18lf25k80.asm
             RXFBCON6bits   0x000e77       data     extern E:\c18v3.46\pic18-lt\cxx-framework\src\traditional\proc\p18lf25k80.asm
                 RXFBCON7   0x000e78       data     extern E:\c18v3.46\pic18-lt\cxx-framework\src\traditional\proc\p18lf25k80.asm
             RXFBCON7bits   0x000e78       data     extern E:\c18v3.46\pic18-lt\cxx-framework\src\traditional\proc\p18lf25k80.asm
                MSEL0bits   0x000e79       data     extern E:\c18v3.46\pic18-lt\cxx-framework\src\traditional\proc\p18lf25k80.asm
                    MSEL0   0x000e79       data     extern E:\c18v3.46\pic18-lt\cxx-framework\src\traditional\proc\p18lf25k80.asm
                MSEL1bits   0x000e7a       data     extern E:\c18v3.46\pic18-lt\cxx-framework\src\traditional\proc\p18lf25k80.asm
                    MSEL1   0x000e7a       data     extern E:\c18v3.46\pic18-lt\cxx-framework\src\traditional\proc\p18lf25k80.asm
                MSEL2bits   0x000e7b       data     extern E:\c18v3.46\pic18-lt\cxx-framework\src\traditional\proc\p18lf25k80.asm
                    MSEL2   0x000e7b       data     extern E:\c18v3.46\pic18-lt\cxx-framework\src\traditional\proc\p18lf25k80.asm
                MSEL3bits   0x000e7c       data     extern E:\c18v3.46\pic18-lt\cxx-framework\src\traditional\proc\p18lf25k80.asm
                    MSEL3   0x000e7c       data     extern E:\c18v3.46\pic18-lt\cxx-framework\src\traditional\proc\p18lf25k80.asm
                BSEL0bits   0x000e7d       data     extern E:\c18v3.46\pic18-lt\cxx-framework\src\traditional\proc\p18lf25k80.asm
                    BSEL0   0x000e7d       data     extern E:\c18v3.46\pic18-lt\cxx-framework\src\traditional\proc\p18lf25k80.asm
                 BIE0bits   0x000e7e       data     extern E:\c18v3.46\pic18-lt\cxx-framework\src\traditional\proc\p18lf25k80.asm
                     BIE0   0x000e7e       data     extern E:\c18v3.46\pic18-lt\cxx-framework\src\traditional\proc\p18lf25k80.asm
                TXBIEbits   0x000e7f       data     extern E:\c18v3.46\pic18-lt\cxx-framework\src\traditional\proc\p18lf25k80.asm
                    TXBIE   0x000e7f       data     extern E:\c18v3.46\pic18-lt\cxx-framework\src\traditional\proc\p18lf25k80.asm
                B0CONbits   0x000e80       data     extern E:\c18v3.46\pic18-lt\cxx-framework\src\traditional\proc\p18lf25k80.asm
                    B0CON   0x000e80       data     extern E:\c18v3.46\pic18-lt\cxx-framework\src\traditional\proc\p18lf25k80.asm
               B0SIDHbits   0x000e81       data     extern E:\c18v3.46\pic18-lt\cxx-framework\src\traditional\proc\p18lf25k80.asm
                   B0SIDH   0x000e81       data     extern E:\c18v3.46\pic18-lt\cxx-framework\src\traditional\proc\p18lf25k80.asm
                   B0SIDL   0x000e82       data     extern E:\c18v3.46\pic18-lt\cxx-framework\src\traditional\proc\p18lf25k80.asm
               B0SIDLbits   0x000e82       data     extern E:\c18v3.46\pic18-lt\cxx-framework\src\traditional\proc\p18lf25k80.asm
                   B0EIDH   0x000e83       data     extern E:\c18v3.46\pic18-lt\cxx-framework\src\traditional\proc\p18lf25k80.asm
               B0EIDHbits   0x000e83       data     extern E:\c18v3.46\pic18-lt\cxx-framework\src\traditional\proc\p18lf25k80.asm
                   B0EIDL   0x000e84       data     extern E:\c18v3.46\pic18-lt\cxx-framework\src\traditional\proc\p18lf25k80.asm
               B0EIDLbits   0x000e84       data     extern E:\c18v3.46\pic18-lt\cxx-framework\src\traditional\proc\p18lf25k80.asm
                B0DLCbits   0x000e85       data     extern E:\c18v3.46\pic18-lt\cxx-framework\src\traditional\proc\p18lf25k80.asm
                    B0DLC   0x000e85       data     extern E:\c18v3.46\pic18-lt\cxx-framework\src\traditional\proc\p18lf25k80.asm
                 B0D0bits   0x000e86       data     extern E:\c18v3.46\pic18-lt\cxx-framework\src\traditional\proc\p18lf25k80.asm
                     B0D0   0x000e86       data     extern E:\c18v3.46\pic18-lt\cxx-framework\src\traditional\proc\p18lf25k80.asm
                     B0D1   0x000e87       data     extern E:\c18v3.46\pic18-lt\cxx-framework\src\traditional\proc\p18lf25k80.asm
                 B0D1bits   0x000e87       data     extern E:\c18v3.46\pic18-lt\cxx-framework\src\traditional\proc\p18lf25k80.asm
                     B0D2   0x000e88       data     extern E:\c18v3.46\pic18-lt\cxx-framework\src\traditional\proc\p18lf25k80.asm
                 B0D2bits   0x000e88       data     extern E:\c18v3.46\pic18-lt\cxx-framework\src\traditional\proc\p18lf25k80.asm
                     B0D3   0x000e89       data     extern E:\c18v3.46\pic18-lt\cxx-framework\src\traditional\proc\p18lf25k80.asm
                 B0D3bits   0x000e89       data     extern E:\c18v3.46\pic18-lt\cxx-framework\src\traditional\proc\p18lf25k80.asm
                     B0D4   0x000e8a       data     extern E:\c18v3.46\pic18-lt\cxx-framework\src\traditional\proc\p18lf25k80.asm
                 B0D4bits   0x000e8a       data     extern E:\c18v3.46\pic18-lt\cxx-framework\src\traditional\proc\p18lf25k80.asm
                     B0D5   0x000e8b       data     extern E:\c18v3.46\pic18-lt\cxx-framework\src\traditional\proc\p18lf25k80.asm
                 B0D5bits   0x000e8b       data     extern E:\c18v3.46\pic18-lt\cxx-framework\src\traditional\proc\p18lf25k80.asm
                     B0D6   0x000e8c       data     extern E:\c18v3.46\pic18-lt\cxx-framework\src\traditional\proc\p18lf25k80.asm
                 B0D6bits   0x000e8c       data     extern E:\c18v3.46\pic18-lt\cxx-framework\src\traditional\proc\p18lf25k80.asm
                     B0D7   0x000e8d       data     extern E:\c18v3.46\pic18-lt\cxx-framework\src\traditional\proc\p18lf25k80.asm
                 B0D7bits   0x000e8d       data     extern E:\c18v3.46\pic18-lt\cxx-framework\src\traditional\proc\p18lf25k80.asm
              CANSTAT_RO9   0x000e8e       data     extern E:\c18v3.46\pic18-lt\cxx-framework\src\traditional\proc\p18lf25k80.asm
          CANSTAT_RO9bits   0x000e8e       data     extern E:\c18v3.46\pic18-lt\cxx-framework\src\traditional\proc\p18lf25k80.asm
               CANCON_RO9   0x000e8f       data     extern E:\c18v3.46\pic18-lt\cxx-framework\src\traditional\proc\p18lf25k80.asm
           CANCON_RO9bits   0x000e8f       data     extern E:\c18v3.46\pic18-lt\cxx-framework\src\traditional\proc\p18lf25k80.asm
                B1CONbits   0x000e90       data     extern E:\c18v3.46\pic18-lt\cxx-framework\src\traditional\proc\p18lf25k80.asm
                    B1CON   0x000e90       data     extern E:\c18v3.46\pic18-lt\cxx-framework\src\traditional\proc\p18lf25k80.asm
                   B1SIDH   0x000e91       data     extern E:\c18v3.46\pic18-lt\cxx-framework\src\traditional\proc\p18lf25k80.asm
               B1SIDHbits   0x000e91       data     extern E:\c18v3.46\pic18-lt\cxx-framework\src\traditional\proc\p18lf25k80.asm
                   B1SIDL   0x000e92       data     extern E:\c18v3.46\pic18-lt\cxx-framework\src\traditional\proc\p18lf25k80.asm
               B1SIDLbits   0x000e92       data     extern E:\c18v3.46\pic18-lt\cxx-framework\src\traditional\proc\p18lf25k80.asm
                   B1EIDH   0x000e93       data     extern E:\c18v3.46\pic18-lt\cxx-framework\src\traditional\proc\p18lf25k80.asm
               B1EIDHbits   0x000e93       data     extern E:\c18v3.46\pic18-lt\cxx-framework\src\traditional\proc\p18lf25k80.asm
                   B1EIDL   0x000e94       data     extern E:\c18v3.46\pic18-lt\cxx-framework\src\traditional\proc\p18lf25k80.asm
               B1EIDLbits   0x000e94       data     extern E:\c18v3.46\pic18-lt\cxx-framework\src\traditional\proc\p18lf25k80.asm
                    B1DLC   0x000e95       data     extern E:\c18v3.46\pic18-lt\cxx-framework\src\traditional\proc\p18lf25k80.asm
                B1DLCbits   0x000e95       data     extern E:\c18v3.46\pic18-lt\cxx-framework\src\traditional\proc\p18lf25k80.asm
                     B1D0   0x000e96       data     extern E:\c18v3.46\pic18-lt\cxx-framework\src\traditional\proc\p18lf25k80.asm
                 B1D0bits   0x000e96       data     extern E:\c18v3.46\pic18-lt\cxx-framework\src\traditional\proc\p18lf25k80.asm
                 B1D1bits   0x000e97       data     extern E:\c18v3.46\pic18-lt\cxx-framework\src\traditional\proc\p18lf25k80.asm
                     B1D1   0x000e97       data     extern E:\c18v3.46\pic18-lt\cxx-framework\src\traditional\proc\p18lf25k80.asm
                 B1D2bits   0x000e98       data     extern E:\c18v3.46\pic18-lt\cxx-framework\src\traditional\proc\p18lf25k80.asm
                     B1D2   0x000e98       data     extern E:\c18v3.46\pic18-lt\cxx-framework\src\traditional\proc\p18lf25k80.asm
                     B1D3   0x000e99       data     extern E:\c18v3.46\pic18-lt\cxx-framework\src\traditional\proc\p18lf25k80.asm
                 B1D3bits   0x000e99       data     extern E:\c18v3.46\pic18-lt\cxx-framework\src\traditional\proc\p18lf25k80.asm
                     B1D4   0x000e9a       data     extern E:\c18v3.46\pic18-lt\cxx-framework\src\traditional\proc\p18lf25k80.asm
                 B1D4bits   0x000e9a       data     extern E:\c18v3.46\pic18-lt\cxx-framework\src\traditional\proc\p18lf25k80.asm
                 B1D5bits   0x000e9b       data     extern E:\c18v3.46\pic18-lt\cxx-framework\src\traditional\proc\p18lf25k80.asm
                     B1D5   0x000e9b       data     extern E:\c18v3.46\pic18-lt\cxx-framework\src\traditional\proc\p18lf25k80.asm
                 B1D6bits   0x000e9c       data     extern E:\c18v3.46\pic18-lt\cxx-framework\src\traditional\proc\p18lf25k80.asm
                     B1D6   0x000e9c       data     extern E:\c18v3.46\pic18-lt\cxx-framework\src\traditional\proc\p18lf25k80.asm
                 B1D7bits   0x000e9d       data     extern E:\c18v3.46\pic18-lt\cxx-framework\src\traditional\proc\p18lf25k80.asm
                     B1D7   0x000e9d       data     extern E:\c18v3.46\pic18-lt\cxx-framework\src\traditional\proc\p18lf25k80.asm
          CANSTAT_RO8bits   0x000e9e       data     extern E:\c18v3.46\pic18-lt\cxx-framework\src\traditional\proc\p18lf25k80.asm
              CANSTAT_RO8   0x000e9e       data     extern E:\c18v3.46\pic18-lt\cxx-framework\src\traditional\proc\p18lf25k80.asm
               CANCON_RO8   0x000e9f       data     extern E:\c18v3.46\pic18-lt\cxx-framework\src\traditional\proc\p18lf25k80.asm
           CANCON_RO8bits   0x000e9f       data     extern E:\c18v3.46\pic18-lt\cxx-framework\src\traditional\proc\p18lf25k80.asm
                    B2CON   0x000ea0       data     extern E:\c18v3.46\pic18-lt\cxx-framework\src\traditional\proc\p18lf25k80.asm
                B2CONbits   0x000ea0       data     extern E:\c18v3.46\pic18-lt\cxx-framework\src\traditional\proc\p18lf25k80.asm
               B2SIDHbits   0x000ea1       data     extern E:\c18v3.46\pic18-lt\cxx-framework\src\traditional\proc\p18lf25k80.asm
                   B2SIDH   0x000ea1       data     extern E:\c18v3.46\pic18-lt\cxx-framework\src\traditional\proc\p18lf25k80.asm
                   B2SIDL   0x000ea2       data     extern E:\c18v3.46\pic18-lt\cxx-framework\src\traditional\proc\p18lf25k80.asm
               B2SIDLbits   0x000ea2       data     extern E:\c18v3.46\pic18-lt\cxx-framework\src\traditional\proc\p18lf25k80.asm
               B2EIDHbits   0x000ea3       data     extern E:\c18v3.46\pic18-lt\cxx-framework\src\traditional\proc\p18lf25k80.asm
                   B2EIDH   0x000ea3       data     extern E:\c18v3.46\pic18-lt\cxx-framework\src\traditional\proc\p18lf25k80.asm
                   B2EIDL   0x000ea4       data     extern E:\c18v3.46\pic18-lt\cxx-framework\src\traditional\proc\p18lf25k80.asm
               B2EIDLbits   0x000ea4       data     extern E:\c18v3.46\pic18-lt\cxx-framework\src\traditional\proc\p18lf25k80.asm
                B2DLCbits   0x000ea5       data     extern E:\c18v3.46\pic18-lt\cxx-framework\src\traditional\proc\p18lf25k80.asm
                    B2DLC   0x000ea5       data     extern E:\c18v3.46\pic18-lt\cxx-framework\src\traditional\proc\p18lf25k80.asm
                 B2D0bits   0x000ea6       data     extern E:\c18v3.46\pic18-lt\cxx-framework\src\traditional\proc\p18lf25k80.asm
                     B2D0   0x000ea6       data     extern E:\c18v3.46\pic18-lt\cxx-framework\src\traditional\proc\p18lf25k80.asm
                 B2D1bits   0x000ea7       data     extern E:\c18v3.46\pic18-lt\cxx-framework\src\traditional\proc\p18lf25k80.asm
                     B2D1   0x000ea7       data     extern E:\c18v3.46\pic18-lt\cxx-framework\src\traditional\proc\p18lf25k80.asm
                 B2D2bits   0x000ea8       data     extern E:\c18v3.46\pic18-lt\cxx-framework\src\traditional\proc\p18lf25k80.asm
                     B2D2   0x000ea8       data     extern E:\c18v3.46\pic18-lt\cxx-framework\src\traditional\proc\p18lf25k80.asm
                 B2D3bits   0x000ea9       data     extern E:\c18v3.46\pic18-lt\cxx-framework\src\traditional\proc\p18lf25k80.asm
                     B2D3   0x000ea9       data     extern E:\c18v3.46\pic18-lt\cxx-framework\src\traditional\proc\p18lf25k80.asm
                     B2D4   0x000eaa       data     extern E:\c18v3.46\pic18-lt\cxx-framework\src\traditional\proc\p18lf25k80.asm
                 B2D4bits   0x000eaa       data     extern E:\c18v3.46\pic18-lt\cxx-framework\src\traditional\proc\p18lf25k80.asm
                 B2D5bits   0x000eab       data     extern E:\c18v3.46\pic18-lt\cxx-framework\src\traditional\proc\p18lf25k80.asm
                     B2D5   0x000eab       data     extern E:\c18v3.46\pic18-lt\cxx-framework\src\traditional\proc\p18lf25k80.asm
                     B2D6   0x000eac       data     extern E:\c18v3.46\pic18-lt\cxx-framework\src\traditional\proc\p18lf25k80.asm
                 B2D6bits   0x000eac       data     extern E:\c18v3.46\pic18-lt\cxx-framework\src\traditional\proc\p18lf25k80.asm
                 B2D7bits   0x000ead       data     extern E:\c18v3.46\pic18-lt\cxx-framework\src\traditional\proc\p18lf25k80.asm
                     B2D7   0x000ead       data     extern E:\c18v3.46\pic18-lt\cxx-framework\src\traditional\proc\p18lf25k80.asm
          CANSTAT_RO7bits   0x000eae       data     extern E:\c18v3.46\pic18-lt\cxx-framework\src\traditional\proc\p18lf25k80.asm
              CANSTAT_RO7   0x000eae       data     extern E:\c18v3.46\pic18-lt\cxx-framework\src\traditional\proc\p18lf25k80.asm
           CANCON_RO7bits   0x000eaf       data     extern E:\c18v3.46\pic18-lt\cxx-framework\src\traditional\proc\p18lf25k80.asm
               CANCON_RO7   0x000eaf       data     extern E:\c18v3.46\pic18-lt\cxx-framework\src\traditional\proc\p18lf25k80.asm
                    B3CON   0x000eb0       data     extern E:\c18v3.46\pic18-lt\cxx-framework\src\traditional\proc\p18lf25k80.asm
                B3CONbits   0x000eb0       data     extern E:\c18v3.46\pic18-lt\cxx-framework\src\traditional\proc\p18lf25k80.asm
                   B3SIDH   0x000eb1       data     extern E:\c18v3.46\pic18-lt\cxx-framework\src\traditional\proc\p18lf25k80.asm
               B3SIDHbits   0x000eb1       data     extern E:\c18v3.46\pic18-lt\cxx-framework\src\traditional\proc\p18lf25k80.asm
               B3SIDLbits   0x000eb2       data     extern E:\c18v3.46\pic18-lt\cxx-framework\src\traditional\proc\p18lf25k80.asm
                   B3SIDL   0x000eb2       data     extern E:\c18v3.46\pic18-lt\cxx-framework\src\traditional\proc\p18lf25k80.asm
               B3EIDHbits   0x000eb3       data     extern E:\c18v3.46\pic18-lt\cxx-framework\src\traditional\proc\p18lf25k80.asm
                   B3EIDH   0x000eb3       data     extern E:\c18v3.46\pic18-lt\cxx-framework\src\traditional\proc\p18lf25k80.asm
               B3EIDLbits   0x000eb4       data     extern E:\c18v3.46\pic18-lt\cxx-framework\src\traditional\proc\p18lf25k80.asm
                   B3EIDL   0x000eb4       data     extern E:\c18v3.46\pic18-lt\cxx-framework\src\traditional\proc\p18lf25k80.asm
                    B3DLC   0x000eb5       data     extern E:\c18v3.46\pic18-lt\cxx-framework\src\traditional\proc\p18lf25k80.asm
                B3DLCbits   0x000eb5       data     extern E:\c18v3.46\pic18-lt\cxx-framework\src\traditional\proc\p18lf25k80.asm
                     B3D0   0x000eb6       data     extern E:\c18v3.46\pic18-lt\cxx-framework\src\traditional\proc\p18lf25k80.asm
                 B3D0bits   0x000eb6       data     extern E:\c18v3.46\pic18-lt\cxx-framework\src\traditional\proc\p18lf25k80.asm
                     B3D1   0x000eb7       data     extern E:\c18v3.46\pic18-lt\cxx-framework\src\traditional\proc\p18lf25k80.asm
                 B3D1bits   0x000eb7       data     extern E:\c18v3.46\pic18-lt\cxx-framework\src\traditional\proc\p18lf25k80.asm
                     B3D2   0x000eb8       data     extern E:\c18v3.46\pic18-lt\cxx-framework\src\traditional\proc\p18lf25k80.asm
                 B3D2bits   0x000eb8       data     extern E:\c18v3.46\pic18-lt\cxx-framework\src\traditional\proc\p18lf25k80.asm
                     B3D3   0x000eb9       data     extern E:\c18v3.46\pic18-lt\cxx-framework\src\traditional\proc\p18lf25k80.asm
                 B3D3bits   0x000eb9       data     extern E:\c18v3.46\pic18-lt\cxx-framework\src\traditional\proc\p18lf25k80.asm
                     B3D4   0x000eba       data     extern E:\c18v3.46\pic18-lt\cxx-framework\src\traditional\proc\p18lf25k80.asm
                 B3D4bits   0x000eba       data     extern E:\c18v3.46\pic18-lt\cxx-framework\src\traditional\proc\p18lf25k80.asm
                 B3D5bits   0x000ebb       data     extern E:\c18v3.46\pic18-lt\cxx-framework\src\traditional\proc\p18lf25k80.asm
                     B3D5   0x000ebb       data     extern E:\c18v3.46\pic18-lt\cxx-framework\src\traditional\proc\p18lf25k80.asm
                 B3D6bits   0x000ebc       data     extern E:\c18v3.46\pic18-lt\cxx-framework\src\traditional\proc\p18lf25k80.asm
                     B3D6   0x000ebc       data     extern E:\c18v3.46\pic18-lt\cxx-framework\src\traditional\proc\p18lf25k80.asm
                     B3D7   0x000ebd       data     extern E:\c18v3.46\pic18-lt\cxx-framework\src\traditional\proc\p18lf25k80.asm
                 B3D7bits   0x000ebd       data     extern E:\c18v3.46\pic18-lt\cxx-framework\src\traditional\proc\p18lf25k80.asm
              CANSTAT_RO6   0x000ebe       data     extern E:\c18v3.46\pic18-lt\cxx-framework\src\traditional\proc\p18lf25k80.asm
          CANSTAT_RO6bits   0x000ebe       data     extern E:\c18v3.46\pic18-lt\cxx-framework\src\traditional\proc\p18lf25k80.asm
           CANCON_RO6bits   0x000ebf       data     extern E:\c18v3.46\pic18-lt\cxx-framework\src\traditional\proc\p18lf25k80.asm
               CANCON_RO6   0x000ebf       data     extern E:\c18v3.46\pic18-lt\cxx-framework\src\traditional\proc\p18lf25k80.asm
                    B4CON   0x000ec0       data     extern E:\c18v3.46\pic18-lt\cxx-framework\src\traditional\proc\p18lf25k80.asm
                B4CONbits   0x000ec0       data     extern E:\c18v3.46\pic18-lt\cxx-framework\src\traditional\proc\p18lf25k80.asm
                   B4SIDH   0x000ec1       data     extern E:\c18v3.46\pic18-lt\cxx-framework\src\traditional\proc\p18lf25k80.asm
               B4SIDHbits   0x000ec1       data     extern E:\c18v3.46\pic18-lt\cxx-framework\src\traditional\proc\p18lf25k80.asm
                   B4SIDL   0x000ec2       data     extern E:\c18v3.46\pic18-lt\cxx-framework\src\traditional\proc\p18lf25k80.asm
               B4SIDLbits   0x000ec2       data     extern E:\c18v3.46\pic18-lt\cxx-framework\src\traditional\proc\p18lf25k80.asm
               B4EIDHbits   0x000ec3       data     extern E:\c18v3.46\pic18-lt\cxx-framework\src\traditional\proc\p18lf25k80.asm
                   B4EIDH   0x000ec3       data     extern E:\c18v3.46\pic18-lt\cxx-framework\src\traditional\proc\p18lf25k80.asm
               B4EIDLbits   0x000ec4       data     extern E:\c18v3.46\pic18-lt\cxx-framework\src\traditional\proc\p18lf25k80.asm
                   B4EIDL   0x000ec4       data     extern E:\c18v3.46\pic18-lt\cxx-framework\src\traditional\proc\p18lf25k80.asm
                B4DLCbits   0x000ec5       data     extern E:\c18v3.46\pic18-lt\cxx-framework\src\traditional\proc\p18lf25k80.asm
                    B4DLC   0x000ec5       data     extern E:\c18v3.46\pic18-lt\cxx-framework\src\traditional\proc\p18lf25k80.asm
                     B4D0   0x000ec6       data     extern E:\c18v3.46\pic18-lt\cxx-framework\src\traditional\proc\p18lf25k80.asm
                 B4D0bits   0x000ec6       data     extern E:\c18v3.46\pic18-lt\cxx-framework\src\traditional\proc\p18lf25k80.asm
                     B4D1   0x000ec7       data     extern E:\c18v3.46\pic18-lt\cxx-framework\src\traditional\proc\p18lf25k80.asm
                 B4D1bits   0x000ec7       data     extern E:\c18v3.46\pic18-lt\cxx-framework\src\traditional\proc\p18lf25k80.asm
                 B4D2bits   0x000ec8       data     extern E:\c18v3.46\pic18-lt\cxx-framework\src\traditional\proc\p18lf25k80.asm
                     B4D2   0x000ec8       data     extern E:\c18v3.46\pic18-lt\cxx-framework\src\traditional\proc\p18lf25k80.asm
                     B4D3   0x000ec9       data     extern E:\c18v3.46\pic18-lt\cxx-framework\src\traditional\proc\p18lf25k80.asm
                 B4D3bits   0x000ec9       data     extern E:\c18v3.46\pic18-lt\cxx-framework\src\traditional\proc\p18lf25k80.asm
                     B4D4   0x000eca       data     extern E:\c18v3.46\pic18-lt\cxx-framework\src\traditional\proc\p18lf25k80.asm
                 B4D4bits   0x000eca       data     extern E:\c18v3.46\pic18-lt\cxx-framework\src\traditional\proc\p18lf25k80.asm
                 B4D5bits   0x000ecb       data     extern E:\c18v3.46\pic18-lt\cxx-framework\src\traditional\proc\p18lf25k80.asm
                     B4D5   0x000ecb       data     extern E:\c18v3.46\pic18-lt\cxx-framework\src\traditional\proc\p18lf25k80.asm
                     B4D6   0x000ecc       data     extern E:\c18v3.46\pic18-lt\cxx-framework\src\traditional\proc\p18lf25k80.asm
                 B4D6bits   0x000ecc       data     extern E:\c18v3.46\pic18-lt\cxx-framework\src\traditional\proc\p18lf25k80.asm
                     B4D7   0x000ecd       data     extern E:\c18v3.46\pic18-lt\cxx-framework\src\traditional\proc\p18lf25k80.asm
                 B4D7bits   0x000ecd       data     extern E:\c18v3.46\pic18-lt\cxx-framework\src\traditional\proc\p18lf25k80.asm
          CANSTAT_RO5bits   0x000ece       data     extern E:\c18v3.46\pic18-lt\cxx-framework\src\traditional\proc\p18lf25k80.asm
              CANSTAT_RO5   0x000ece       data     extern E:\c18v3.46\pic18-lt\cxx-framework\src\traditional\proc\p18lf25k80.asm
               CANCON_RO5   0x000ecf       data     extern E:\c18v3.46\pic18-lt\cxx-framework\src\traditional\proc\p18lf25k80.asm
           CANCON_RO5bits   0x000ecf       data     extern E:\c18v3.46\pic18-lt\cxx-framework\src\traditional\proc\p18lf25k80.asm
                    B5CON   0x000ed0       data     extern E:\c18v3.46\pic18-lt\cxx-framework\src\traditional\proc\p18lf25k80.asm
                B5CONbits   0x000ed0       data     extern E:\c18v3.46\pic18-lt\cxx-framework\src\traditional\proc\p18lf25k80.asm
                   B5SIDH   0x000ed1       data     extern E:\c18v3.46\pic18-lt\cxx-framework\src\traditional\proc\p18lf25k80.asm
               B5SIDHbits   0x000ed1       data     extern E:\c18v3.46\pic18-lt\cxx-framework\src\traditional\proc\p18lf25k80.asm
                   B5SIDL   0x000ed2       data     extern E:\c18v3.46\pic18-lt\cxx-framework\src\traditional\proc\p18lf25k80.asm
               B5SIDLbits   0x000ed2       data     extern E:\c18v3.46\pic18-lt\cxx-framework\src\traditional\proc\p18lf25k80.asm
                   B5EIDH   0x000ed3       data     extern E:\c18v3.46\pic18-lt\cxx-framework\src\traditional\proc\p18lf25k80.asm
               B5EIDHbits   0x000ed3       data     extern E:\c18v3.46\pic18-lt\cxx-framework\src\traditional\proc\p18lf25k80.asm
                   B5EIDL   0x000ed4       data     extern E:\c18v3.46\pic18-lt\cxx-framework\src\traditional\proc\p18lf25k80.asm
               B5EIDLbits   0x000ed4       data     extern E:\c18v3.46\pic18-lt\cxx-framework\src\traditional\proc\p18lf25k80.asm
                B5DLCbits   0x000ed5       data     extern E:\c18v3.46\pic18-lt\cxx-framework\src\traditional\proc\p18lf25k80.asm
                    B5DLC   0x000ed5       data     extern E:\c18v3.46\pic18-lt\cxx-framework\src\traditional\proc\p18lf25k80.asm
                 B5D0bits   0x000ed6       data     extern E:\c18v3.46\pic18-lt\cxx-framework\src\traditional\proc\p18lf25k80.asm
                     B5D0   0x000ed6       data     extern E:\c18v3.46\pic18-lt\cxx-framework\src\traditional\proc\p18lf25k80.asm
                 B5D1bits   0x000ed7       data     extern E:\c18v3.46\pic18-lt\cxx-framework\src\traditional\proc\p18lf25k80.asm
                     B5D1   0x000ed7       data     extern E:\c18v3.46\pic18-lt\cxx-framework\src\traditional\proc\p18lf25k80.asm
                     B5D2   0x000ed8       data     extern E:\c18v3.46\pic18-lt\cxx-framework\src\traditional\proc\p18lf25k80.asm
                 B5D2bits   0x000ed8       data     extern E:\c18v3.46\pic18-lt\cxx-framework\src\traditional\proc\p18lf25k80.asm
                     B5D3   0x000ed9       data     extern E:\c18v3.46\pic18-lt\cxx-framework\src\traditional\proc\p18lf25k80.asm
                 B5D3bits   0x000ed9       data     extern E:\c18v3.46\pic18-lt\cxx-framework\src\traditional\proc\p18lf25k80.asm
                 B5D4bits   0x000eda       data     extern E:\c18v3.46\pic18-lt\cxx-framework\src\traditional\proc\p18lf25k80.asm
                     B5D4   0x000eda       data     extern E:\c18v3.46\pic18-lt\cxx-framework\src\traditional\proc\p18lf25k80.asm
                 B5D5bits   0x000edb       data     extern E:\c18v3.46\pic18-lt\cxx-framework\src\traditional\proc\p18lf25k80.asm
                     B5D5   0x000edb       data     extern E:\c18v3.46\pic18-lt\cxx-framework\src\traditional\proc\p18lf25k80.asm
                 B5D6bits   0x000edc       data     extern E:\c18v3.46\pic18-lt\cxx-framework\src\traditional\proc\p18lf25k80.asm
                     B5D6   0x000edc       data     extern E:\c18v3.46\pic18-lt\cxx-framework\src\traditional\proc\p18lf25k80.asm
                     B5D7   0x000edd       data     extern E:\c18v3.46\pic18-lt\cxx-framework\src\traditional\proc\p18lf25k80.asm
                 B5D7bits   0x000edd       data     extern E:\c18v3.46\pic18-lt\cxx-framework\src\traditional\proc\p18lf25k80.asm
          CANSTAT_RO4bits   0x000ede       data     extern E:\c18v3.46\pic18-lt\cxx-framework\src\traditional\proc\p18lf25k80.asm
              CANSTAT_RO4   0x000ede       data     extern E:\c18v3.46\pic18-lt\cxx-framework\src\traditional\proc\p18lf25k80.asm
           CANCON_RO4bits   0x000edf       data     extern E:\c18v3.46\pic18-lt\cxx-framework\src\traditional\proc\p18lf25k80.asm
               CANCON_RO4   0x000edf       data     extern E:\c18v3.46\pic18-lt\cxx-framework\src\traditional\proc\p18lf25k80.asm
             RXF0SIDHbits   0x000ee0       data     extern E:\c18v3.46\pic18-lt\cxx-framework\src\traditional\proc\p18lf25k80.asm
                 RXF0SIDH   0x000ee0       data     extern E:\c18v3.46\pic18-lt\cxx-framework\src\traditional\proc\p18lf25k80.asm
             RXF0SIDLbits   0x000ee1       data     extern E:\c18v3.46\pic18-lt\cxx-framework\src\traditional\proc\p18lf25k80.asm
                 RXF0SIDL   0x000ee1       data     extern E:\c18v3.46\pic18-lt\cxx-framework\src\traditional\proc\p18lf25k80.asm
             RXF0EIDHbits   0x000ee2       data     extern E:\c18v3.46\pic18-lt\cxx-framework\src\traditional\proc\p18lf25k80.asm
                 RXF0EIDH   0x000ee2       data     extern E:\c18v3.46\pic18-lt\cxx-framework\src\traditional\proc\p18lf25k80.asm
             RXF0EIDLbits   0x000ee3       data     extern E:\c18v3.46\pic18-lt\cxx-framework\src\traditional\proc\p18lf25k80.asm
                 RXF0EIDL   0x000ee3       data     extern E:\c18v3.46\pic18-lt\cxx-framework\src\traditional\proc\p18lf25k80.asm
             RXF1SIDHbits   0x000ee4       data     extern E:\c18v3.46\pic18-lt\cxx-framework\src\traditional\proc\p18lf25k80.asm
                 RXF1SIDH   0x000ee4       data     extern E:\c18v3.46\pic18-lt\cxx-framework\src\traditional\proc\p18lf25k80.asm
             RXF1SIDLbits   0x000ee5       data     extern E:\c18v3.46\pic18-lt\cxx-framework\src\traditional\proc\p18lf25k80.asm
                 RXF1SIDL   0x000ee5       data     extern E:\c18v3.46\pic18-lt\cxx-framework\src\traditional\proc\p18lf25k80.asm
                 RXF1EIDH   0x000ee6       data     extern E:\c18v3.46\pic18-lt\cxx-framework\src\traditional\proc\p18lf25k80.asm
             RXF1EIDHbits   0x000ee6       data     extern E:\c18v3.46\pic18-lt\cxx-framework\src\traditional\proc\p18lf25k80.asm
                 RXF1EIDL   0x000ee7       data     extern E:\c18v3.46\pic18-lt\cxx-framework\src\traditional\proc\p18lf25k80.asm
             RXF1EIDLbits   0x000ee7       data     extern E:\c18v3.46\pic18-lt\cxx-framework\src\traditional\proc\p18lf25k80.asm
             RXF2SIDHbits   0x000ee8       data     extern E:\c18v3.46\pic18-lt\cxx-framework\src\traditional\proc\p18lf25k80.asm
                 RXF2SIDH   0x000ee8       data     extern E:\c18v3.46\pic18-lt\cxx-framework\src\traditional\proc\p18lf25k80.asm
                 RXF2SIDL   0x000ee9       data     extern E:\c18v3.46\pic18-lt\cxx-framework\src\traditional\proc\p18lf25k80.asm
             RXF2SIDLbits   0x000ee9       data     extern E:\c18v3.46\pic18-lt\cxx-framework\src\traditional\proc\p18lf25k80.asm
                 RXF2EIDH   0x000eea       data     extern E:\c18v3.46\pic18-lt\cxx-framework\src\traditional\proc\p18lf25k80.asm
             RXF2EIDHbits   0x000eea       data     extern E:\c18v3.46\pic18-lt\cxx-framework\src\traditional\proc\p18lf25k80.asm
                 RXF2EIDL   0x000eeb       data     extern E:\c18v3.46\pic18-lt\cxx-framework\src\traditional\proc\p18lf25k80.asm
             RXF2EIDLbits   0x000eeb       data     extern E:\c18v3.46\pic18-lt\cxx-framework\src\traditional\proc\p18lf25k80.asm
                 RXF3SIDH   0x000eec       data     extern E:\c18v3.46\pic18-lt\cxx-framework\src\traditional\proc\p18lf25k80.asm
             RXF3SIDHbits   0x000eec       data     extern E:\c18v3.46\pic18-lt\cxx-framework\src\traditional\proc\p18lf25k80.asm
             RXF3SIDLbits   0x000eed       data     extern E:\c18v3.46\pic18-lt\cxx-framework\src\traditional\proc\p18lf25k80.asm
                 RXF3SIDL   0x000eed       data     extern E:\c18v3.46\pic18-lt\cxx-framework\src\traditional\proc\p18lf25k80.asm
                 RXF3EIDH   0x000eee       data     extern E:\c18v3.46\pic18-lt\cxx-framework\src\traditional\proc\p18lf25k80.asm
             RXF3EIDHbits   0x000eee       data     extern E:\c18v3.46\pic18-lt\cxx-framework\src\traditional\proc\p18lf25k80.asm
                 RXF3EIDL   0x000eef       data     extern E:\c18v3.46\pic18-lt\cxx-framework\src\traditional\proc\p18lf25k80.asm
             RXF3EIDLbits   0x000eef       data     extern E:\c18v3.46\pic18-lt\cxx-framework\src\traditional\proc\p18lf25k80.asm
             RXF4SIDHbits   0x000ef0       data     extern E:\c18v3.46\pic18-lt\cxx-framework\src\traditional\proc\p18lf25k80.asm
                 RXF4SIDH   0x000ef0       data     extern E:\c18v3.46\pic18-lt\cxx-framework\src\traditional\proc\p18lf25k80.asm
             RXF4SIDLbits   0x000ef1       data     extern E:\c18v3.46\pic18-lt\cxx-framework\src\traditional\proc\p18lf25k80.asm
                 RXF4SIDL   0x000ef1       data     extern E:\c18v3.46\pic18-lt\cxx-framework\src\traditional\proc\p18lf25k80.asm
             RXF4EIDHbits   0x000ef2       data     extern E:\c18v3.46\pic18-lt\cxx-framework\src\traditional\proc\p18lf25k80.asm
                 RXF4EIDH   0x000ef2       data     extern E:\c18v3.46\pic18-lt\cxx-framework\src\traditional\proc\p18lf25k80.asm
             RXF4EIDLbits   0x000ef3       data     extern E:\c18v3.46\pic18-lt\cxx-framework\src\traditional\proc\p18lf25k80.asm
                 RXF4EIDL   0x000ef3       data     extern E:\c18v3.46\pic18-lt\cxx-framework\src\traditional\proc\p18lf25k80.asm
                 RXF5SIDH   0x000ef4       data     extern E:\c18v3.46\pic18-lt\cxx-framework\src\traditional\proc\p18lf25k80.asm
             RXF5SIDHbits   0x000ef4       data     extern E:\c18v3.46\pic18-lt\cxx-framework\src\traditional\proc\p18lf25k80.asm
             RXF5SIDLbits   0x000ef5       data     extern E:\c18v3.46\pic18-lt\cxx-framework\src\traditional\proc\p18lf25k80.asm
                 RXF5SIDL   0x000ef5       data     extern E:\c18v3.46\pic18-lt\cxx-framework\src\traditional\proc\p18lf25k80.asm
             RXF5EIDHbits   0x000ef6       data     extern E:\c18v3.46\pic18-lt\cxx-framework\src\traditional\proc\p18lf25k80.asm
                 RXF5EIDH   0x000ef6       data     extern E:\c18v3.46\pic18-lt\cxx-framework\src\traditional\proc\p18lf25k80.asm
             RXF5EIDLbits   0x000ef7       data     extern E:\c18v3.46\pic18-lt\cxx-framework\src\traditional\proc\p18lf25k80.asm
                 RXF5EIDL   0x000ef7       data     extern E:\c18v3.46\pic18-lt\cxx-framework\src\traditional\proc\p18lf25k80.asm
             RXM0SIDHbits   0x000ef8       data     extern E:\c18v3.46\pic18-lt\cxx-framework\src\traditional\proc\p18lf25k80.asm
                 RXM0SIDH   0x000ef8       data     extern E:\c18v3.46\pic18-lt\cxx-framework\src\traditional\proc\p18lf25k80.asm
                 RXM0SIDL   0x000ef9       data     extern E:\c18v3.46\pic18-lt\cxx-framework\src\traditional\proc\p18lf25k80.asm
             RXM0SIDLbits   0x000ef9       data     extern E:\c18v3.46\pic18-lt\cxx-framework\src\traditional\proc\p18lf25k80.asm
             RXM0EIDHbits   0x000efa       data     extern E:\c18v3.46\pic18-lt\cxx-framework\src\traditional\proc\p18lf25k80.asm
                 RXM0EIDH   0x000efa       data     extern E:\c18v3.46\pic18-lt\cxx-framework\src\traditional\proc\p18lf25k80.asm
             RXM0EIDLbits   0x000efb       data     extern E:\c18v3.46\pic18-lt\cxx-framework\src\traditional\proc\p18lf25k80.asm
                 RXM0EIDL   0x000efb       data     extern E:\c18v3.46\pic18-lt\cxx-framework\src\traditional\proc\p18lf25k80.asm
                 RXM1SIDH   0x000efc       data     extern E:\c18v3.46\pic18-lt\cxx-framework\src\traditional\proc\p18lf25k80.asm
             RXM1SIDHbits   0x000efc       data     extern E:\c18v3.46\pic18-lt\cxx-framework\src\traditional\proc\p18lf25k80.asm
             RXM1SIDLbits   0x000efd       data     extern E:\c18v3.46\pic18-lt\cxx-framework\src\traditional\proc\p18lf25k80.asm
                 RXM1SIDL   0x000efd       data     extern E:\c18v3.46\pic18-lt\cxx-framework\src\traditional\proc\p18lf25k80.asm
                 RXM1EIDH   0x000efe       data     extern E:\c18v3.46\pic18-lt\cxx-framework\src\traditional\proc\p18lf25k80.asm
             RXM1EIDHbits   0x000efe       data     extern E:\c18v3.46\pic18-lt\cxx-framework\src\traditional\proc\p18lf25k80.asm
                 RXM1EIDL   0x000eff       data     extern E:\c18v3.46\pic18-lt\cxx-framework\src\traditional\proc\p18lf25k80.asm
             RXM1EIDLbits   0x000eff       data     extern E:\c18v3.46\pic18-lt\cxx-framework\src\traditional\proc\p18lf25k80.asm
              TXB2CONbits   0x000f00       data     extern E:\c18v3.46\pic18-lt\cxx-framework\src\traditional\proc\p18lf25k80.asm
                  TXB2CON   0x000f00       data     extern E:\c18v3.46\pic18-lt\cxx-framework\src\traditional\proc\p18lf25k80.asm
             TXB2SIDHbits   0x000f01       data     extern E:\c18v3.46\pic18-lt\cxx-framework\src\traditional\proc\p18lf25k80.asm
                 TXB2SIDH   0x000f01       data     extern E:\c18v3.46\pic18-lt\cxx-framework\src\traditional\proc\p18lf25k80.asm
             TXB2SIDLbits   0x000f02       data     extern E:\c18v3.46\pic18-lt\cxx-framework\src\traditional\proc\p18lf25k80.asm
                 TXB2SIDL   0x000f02       data     extern E:\c18v3.46\pic18-lt\cxx-framework\src\traditional\proc\p18lf25k80.asm
             TXB2EIDHbits   0x000f03       data     extern E:\c18v3.46\pic18-lt\cxx-framework\src\traditional\proc\p18lf25k80.asm
                 TXB2EIDH   0x000f03       data     extern E:\c18v3.46\pic18-lt\cxx-framework\src\traditional\proc\p18lf25k80.asm
             TXB2EIDLbits   0x000f04       data     extern E:\c18v3.46\pic18-lt\cxx-framework\src\traditional\proc\p18lf25k80.asm
                 TXB2EIDL   0x000f04       data     extern E:\c18v3.46\pic18-lt\cxx-framework\src\traditional\proc\p18lf25k80.asm
              TXB2DLCbits   0x000f05       data     extern E:\c18v3.46\pic18-lt\cxx-framework\src\traditional\proc\p18lf25k80.asm
                  TXB2DLC   0x000f05       data     extern E:\c18v3.46\pic18-lt\cxx-framework\src\traditional\proc\p18lf25k80.asm
               TXB2D0bits   0x000f06       data     extern E:\c18v3.46\pic18-lt\cxx-framework\src\traditional\proc\p18lf25k80.asm
                   TXB2D0   0x000f06       data     extern E:\c18v3.46\pic18-lt\cxx-framework\src\traditional\proc\p18lf25k80.asm
               TXB2D1bits   0x000f07       data     extern E:\c18v3.46\pic18-lt\cxx-framework\src\traditional\proc\p18lf25k80.asm
                   TXB2D1   0x000f07       data     extern E:\c18v3.46\pic18-lt\cxx-framework\src\traditional\proc\p18lf25k80.asm
                   TXB2D2   0x000f08       data     extern E:\c18v3.46\pic18-lt\cxx-framework\src\traditional\proc\p18lf25k80.asm
               TXB2D2bits   0x000f08       data     extern E:\c18v3.46\pic18-lt\cxx-framework\src\traditional\proc\p18lf25k80.asm
               TXB2D3bits   0x000f09       data     extern E:\c18v3.46\pic18-lt\cxx-framework\src\traditional\proc\p18lf25k80.asm
                   TXB2D3   0x000f09       data     extern E:\c18v3.46\pic18-lt\cxx-framework\src\traditional\proc\p18lf25k80.asm
                   TXB2D4   0x000f0a       data     extern E:\c18v3.46\pic18-lt\cxx-framework\src\traditional\proc\p18lf25k80.asm
               TXB2D4bits   0x000f0a       data     extern E:\c18v3.46\pic18-lt\cxx-framework\src\traditional\proc\p18lf25k80.asm
                   TXB2D5   0x000f0b       data     extern E:\c18v3.46\pic18-lt\cxx-framework\src\traditional\proc\p18lf25k80.asm
               TXB2D5bits   0x000f0b       data     extern E:\c18v3.46\pic18-lt\cxx-framework\src\traditional\proc\p18lf25k80.asm
                   TXB2D6   0x000f0c       data     extern E:\c18v3.46\pic18-lt\cxx-framework\src\traditional\proc\p18lf25k80.asm
               TXB2D6bits   0x000f0c       data     extern E:\c18v3.46\pic18-lt\cxx-framework\src\traditional\proc\p18lf25k80.asm
                   TXB2D7   0x000f0d       data     extern E:\c18v3.46\pic18-lt\cxx-framework\src\traditional\proc\p18lf25k80.asm
               TXB2D7bits   0x000f0d       data     extern E:\c18v3.46\pic18-lt\cxx-framework\src\traditional\proc\p18lf25k80.asm
          CANSTAT_RO3bits   0x000f0e       data     extern E:\c18v3.46\pic18-lt\cxx-framework\src\traditional\proc\p18lf25k80.asm
              CANSTAT_RO3   0x000f0e       data     extern E:\c18v3.46\pic18-lt\cxx-framework\src\traditional\proc\p18lf25k80.asm
           CANCON_RO3bits   0x000f0f       data     extern E:\c18v3.46\pic18-lt\cxx-framework\src\traditional\proc\p18lf25k80.asm
               CANCON_RO3   0x000f0f       data     extern E:\c18v3.46\pic18-lt\cxx-framework\src\traditional\proc\p18lf25k80.asm
              TXB1CONbits   0x000f10       data     extern E:\c18v3.46\pic18-lt\cxx-framework\src\traditional\proc\p18lf25k80.asm
                  TXB1CON   0x000f10       data     extern E:\c18v3.46\pic18-lt\cxx-framework\src\traditional\proc\p18lf25k80.asm
                 TXB1SIDH   0x000f11       data     extern E:\c18v3.46\pic18-lt\cxx-framework\src\traditional\proc\p18lf25k80.asm
             TXB1SIDHbits   0x000f11       data     extern E:\c18v3.46\pic18-lt\cxx-framework\src\traditional\proc\p18lf25k80.asm
             TXB1SIDLbits   0x000f12       data     extern E:\c18v3.46\pic18-lt\cxx-framework\src\traditional\proc\p18lf25k80.asm
                 TXB1SIDL   0x000f12       data     extern E:\c18v3.46\pic18-lt\cxx-framework\src\traditional\proc\p18lf25k80.asm
                 TXB1EIDH   0x000f13       data     extern E:\c18v3.46\pic18-lt\cxx-framework\src\traditional\proc\p18lf25k80.asm
             TXB1EIDHbits   0x000f13       data     extern E:\c18v3.46\pic18-lt\cxx-framework\src\traditional\proc\p18lf25k80.asm
                 TXB1EIDL   0x000f14       data     extern E:\c18v3.46\pic18-lt\cxx-framework\src\traditional\proc\p18lf25k80.asm
             TXB1EIDLbits   0x000f14       data     extern E:\c18v3.46\pic18-lt\cxx-framework\src\traditional\proc\p18lf25k80.asm
                  TXB1DLC   0x000f15       data     extern E:\c18v3.46\pic18-lt\cxx-framework\src\traditional\proc\p18lf25k80.asm
              TXB1DLCbits   0x000f15       data     extern E:\c18v3.46\pic18-lt\cxx-framework\src\traditional\proc\p18lf25k80.asm
                   TXB1D0   0x000f16       data     extern E:\c18v3.46\pic18-lt\cxx-framework\src\traditional\proc\p18lf25k80.asm
               TXB1D0bits   0x000f16       data     extern E:\c18v3.46\pic18-lt\cxx-framework\src\traditional\proc\p18lf25k80.asm
                   TXB1D1   0x000f17       data     extern E:\c18v3.46\pic18-lt\cxx-framework\src\traditional\proc\p18lf25k80.asm
               TXB1D1bits   0x000f17       data     extern E:\c18v3.46\pic18-lt\cxx-framework\src\traditional\proc\p18lf25k80.asm
               TXB1D2bits   0x000f18       data     extern E:\c18v3.46\pic18-lt\cxx-framework\src\traditional\proc\p18lf25k80.asm
                   TXB1D2   0x000f18       data     extern E:\c18v3.46\pic18-lt\cxx-framework\src\traditional\proc\p18lf25k80.asm
               TXB1D3bits   0x000f19       data     extern E:\c18v3.46\pic18-lt\cxx-framework\src\traditional\proc\p18lf25k80.asm
                   TXB1D3   0x000f19       data     extern E:\c18v3.46\pic18-lt\cxx-framework\src\traditional\proc\p18lf25k80.asm
               TXB1D4bits   0x000f1a       data     extern E:\c18v3.46\pic18-lt\cxx-framework\src\traditional\proc\p18lf25k80.asm
                   TXB1D4   0x000f1a       data     extern E:\c18v3.46\pic18-lt\cxx-framework\src\traditional\proc\p18lf25k80.asm
               TXB1D5bits   0x000f1b       data     extern E:\c18v3.46\pic18-lt\cxx-framework\src\traditional\proc\p18lf25k80.asm
                   TXB1D5   0x000f1b       data     extern E:\c18v3.46\pic18-lt\cxx-framework\src\traditional\proc\p18lf25k80.asm
               TXB1D6bits   0x000f1c       data     extern E:\c18v3.46\pic18-lt\cxx-framework\src\traditional\proc\p18lf25k80.asm
                   TXB1D6   0x000f1c       data     extern E:\c18v3.46\pic18-lt\cxx-framework\src\traditional\proc\p18lf25k80.asm
               TXB1D7bits   0x000f1d       data     extern E:\c18v3.46\pic18-lt\cxx-framework\src\traditional\proc\p18lf25k80.asm
                   TXB1D7   0x000f1d       data     extern E:\c18v3.46\pic18-lt\cxx-framework\src\traditional\proc\p18lf25k80.asm
          CANSTAT_RO2bits   0x000f1e       data     extern E:\c18v3.46\pic18-lt\cxx-framework\src\traditional\proc\p18lf25k80.asm
              CANSTAT_RO2   0x000f1e       data     extern E:\c18v3.46\pic18-lt\cxx-framework\src\traditional\proc\p18lf25k80.asm
               CANCON_RO2   0x000f1f       data     extern E:\c18v3.46\pic18-lt\cxx-framework\src\traditional\proc\p18lf25k80.asm
           CANCON_RO2bits   0x000f1f       data     extern E:\c18v3.46\pic18-lt\cxx-framework\src\traditional\proc\p18lf25k80.asm
                  TXB0CON   0x000f20       data     extern E:\c18v3.46\pic18-lt\cxx-framework\src\traditional\proc\p18lf25k80.asm
              TXB0CONbits   0x000f20       data     extern E:\c18v3.46\pic18-lt\cxx-framework\src\traditional\proc\p18lf25k80.asm
                 TXB0SIDH   0x000f21       data     extern E:\c18v3.46\pic18-lt\cxx-framework\src\traditional\proc\p18lf25k80.asm
             TXB0SIDHbits   0x000f21       data     extern E:\c18v3.46\pic18-lt\cxx-framework\src\traditional\proc\p18lf25k80.asm
                 TXB0SIDL   0x000f22       data     extern E:\c18v3.46\pic18-lt\cxx-framework\src\traditional\proc\p18lf25k80.asm
             TXB0SIDLbits   0x000f22       data     extern E:\c18v3.46\pic18-lt\cxx-framework\src\traditional\proc\p18lf25k80.asm
                 TXB0EIDH   0x000f23       data     extern E:\c18v3.46\pic18-lt\cxx-framework\src\traditional\proc\p18lf25k80.asm
             TXB0EIDHbits   0x000f23       data     extern E:\c18v3.46\pic18-lt\cxx-framework\src\traditional\proc\p18lf25k80.asm
                 TXB0EIDL   0x000f24       data     extern E:\c18v3.46\pic18-lt\cxx-framework\src\traditional\proc\p18lf25k80.asm
             TXB0EIDLbits   0x000f24       data     extern E:\c18v3.46\pic18-lt\cxx-framework\src\traditional\proc\p18lf25k80.asm
                  TXB0DLC   0x000f25       data     extern E:\c18v3.46\pic18-lt\cxx-framework\src\traditional\proc\p18lf25k80.asm
              TXB0DLCbits   0x000f25       data     extern E:\c18v3.46\pic18-lt\cxx-framework\src\traditional\proc\p18lf25k80.asm
                   TXB0D0   0x000f26       data     extern E:\c18v3.46\pic18-lt\cxx-framework\src\traditional\proc\p18lf25k80.asm
               TXB0D0bits   0x000f26       data     extern E:\c18v3.46\pic18-lt\cxx-framework\src\traditional\proc\p18lf25k80.asm
               TXB0D1bits   0x000f27       data     extern E:\c18v3.46\pic18-lt\cxx-framework\src\traditional\proc\p18lf25k80.asm
                   TXB0D1   0x000f27       data     extern E:\c18v3.46\pic18-lt\cxx-framework\src\traditional\proc\p18lf25k80.asm
                   TXB0D2   0x000f28       data     extern E:\c18v3.46\pic18-lt\cxx-framework\src\traditional\proc\p18lf25k80.asm
               TXB0D2bits   0x000f28       data     extern E:\c18v3.46\pic18-lt\cxx-framework\src\traditional\proc\p18lf25k80.asm
                   TXB0D3   0x000f29       data     extern E:\c18v3.46\pic18-lt\cxx-framework\src\traditional\proc\p18lf25k80.asm
               TXB0D3bits   0x000f29       data     extern E:\c18v3.46\pic18-lt\cxx-framework\src\traditional\proc\p18lf25k80.asm
                   TXB0D4   0x000f2a       data     extern E:\c18v3.46\pic18-lt\cxx-framework\src\traditional\proc\p18lf25k80.asm
               TXB0D4bits   0x000f2a       data     extern E:\c18v3.46\pic18-lt\cxx-framework\src\traditional\proc\p18lf25k80.asm
                   TXB0D5   0x000f2b       data     extern E:\c18v3.46\pic18-lt\cxx-framework\src\traditional\proc\p18lf25k80.asm
               TXB0D5bits   0x000f2b       data     extern E:\c18v3.46\pic18-lt\cxx-framework\src\traditional\proc\p18lf25k80.asm
                   TXB0D6   0x000f2c       data     extern E:\c18v3.46\pic18-lt\cxx-framework\src\traditional\proc\p18lf25k80.asm
               TXB0D6bits   0x000f2c       data     extern E:\c18v3.46\pic18-lt\cxx-framework\src\traditional\proc\p18lf25k80.asm
               TXB0D7bits   0x000f2d       data     extern E:\c18v3.46\pic18-lt\cxx-framework\src\traditional\proc\p18lf25k80.asm
                   TXB0D7   0x000f2d       data     extern E:\c18v3.46\pic18-lt\cxx-framework\src\traditional\proc\p18lf25k80.asm
          CANSTAT_RO1bits   0x000f2e       data     extern E:\c18v3.46\pic18-lt\cxx-framework\src\traditional\proc\p18lf25k80.asm
              CANSTAT_RO1   0x000f2e       data     extern E:\c18v3.46\pic18-lt\cxx-framework\src\traditional\proc\p18lf25k80.asm
               CANCON_RO1   0x000f2f       data     extern E:\c18v3.46\pic18-lt\cxx-framework\src\traditional\proc\p18lf25k80.asm
           CANCON_RO1bits   0x000f2f       data     extern E:\c18v3.46\pic18-lt\cxx-framework\src\traditional\proc\p18lf25k80.asm
                  RXB1CON   0x000f30       data     extern E:\c18v3.46\pic18-lt\cxx-framework\src\traditional\proc\p18lf25k80.asm
              RXB1CONbits   0x000f30       data     extern E:\c18v3.46\pic18-lt\cxx-framework\src\traditional\proc\p18lf25k80.asm
             RXB1SIDHbits   0x000f31       data     extern E:\c18v3.46\pic18-lt\cxx-framework\src\traditional\proc\p18lf25k80.asm
                 RXB1SIDH   0x000f31       data     extern E:\c18v3.46\pic18-lt\cxx-framework\src\traditional\proc\p18lf25k80.asm
             RXB1SIDLbits   0x000f32       data     extern E:\c18v3.46\pic18-lt\cxx-framework\src\traditional\proc\p18lf25k80.asm
                 RXB1SIDL   0x000f32       data     extern E:\c18v3.46\pic18-lt\cxx-framework\src\traditional\proc\p18lf25k80.asm
             RXB1EIDHbits   0x000f33       data     extern E:\c18v3.46\pic18-lt\cxx-framework\src\traditional\proc\p18lf25k80.asm
                 RXB1EIDH   0x000f33       data     extern E:\c18v3.46\pic18-lt\cxx-framework\src\traditional\proc\p18lf25k80.asm
             RXB1EIDLbits   0x000f34       data     extern E:\c18v3.46\pic18-lt\cxx-framework\src\traditional\proc\p18lf25k80.asm
                 RXB1EIDL   0x000f34       data     extern E:\c18v3.46\pic18-lt\cxx-framework\src\traditional\proc\p18lf25k80.asm
                  RXB1DLC   0x000f35       data     extern E:\c18v3.46\pic18-lt\cxx-framework\src\traditional\proc\p18lf25k80.asm
              RXB1DLCbits   0x000f35       data     extern E:\c18v3.46\pic18-lt\cxx-framework\src\traditional\proc\p18lf25k80.asm
                   RXB1D0   0x000f36       data     extern E:\c18v3.46\pic18-lt\cxx-framework\src\traditional\proc\p18lf25k80.asm
               RXB1D0bits   0x000f36       data     extern E:\c18v3.46\pic18-lt\cxx-framework\src\traditional\proc\p18lf25k80.asm
               RXB1D1bits   0x000f37       data     extern E:\c18v3.46\pic18-lt\cxx-framework\src\traditional\proc\p18lf25k80.asm
                   RXB1D1   0x000f37       data     extern E:\c18v3.46\pic18-lt\cxx-framework\src\traditional\proc\p18lf25k80.asm
                   RXB1D2   0x000f38       data     extern E:\c18v3.46\pic18-lt\cxx-framework\src\traditional\proc\p18lf25k80.asm
               RXB1D2bits   0x000f38       data     extern E:\c18v3.46\pic18-lt\cxx-framework\src\traditional\proc\p18lf25k80.asm
               RXB1D3bits   0x000f39       data     extern E:\c18v3.46\pic18-lt\cxx-framework\src\traditional\proc\p18lf25k80.asm
                   RXB1D3   0x000f39       data     extern E:\c18v3.46\pic18-lt\cxx-framework\src\traditional\proc\p18lf25k80.asm
                   RXB1D4   0x000f3a       data     extern E:\c18v3.46\pic18-lt\cxx-framework\src\traditional\proc\p18lf25k80.asm
               RXB1D4bits   0x000f3a       data     extern E:\c18v3.46\pic18-lt\cxx-framework\src\traditional\proc\p18lf25k80.asm
                   RXB1D5   0x000f3b       data     extern E:\c18v3.46\pic18-lt\cxx-framework\src\traditional\proc\p18lf25k80.asm
               RXB1D5bits   0x000f3b       data     extern E:\c18v3.46\pic18-lt\cxx-framework\src\traditional\proc\p18lf25k80.asm
                   RXB1D6   0x000f3c       data     extern E:\c18v3.46\pic18-lt\cxx-framework\src\traditional\proc\p18lf25k80.asm
               RXB1D6bits   0x000f3c       data     extern E:\c18v3.46\pic18-lt\cxx-framework\src\traditional\proc\p18lf25k80.asm
                   RXB1D7   0x000f3d       data     extern E:\c18v3.46\pic18-lt\cxx-framework\src\traditional\proc\p18lf25k80.asm
               RXB1D7bits   0x000f3d       data     extern E:\c18v3.46\pic18-lt\cxx-framework\src\traditional\proc\p18lf25k80.asm
          CANSTAT_RO0bits   0x000f3e       data     extern E:\c18v3.46\pic18-lt\cxx-framework\src\traditional\proc\p18lf25k80.asm
              CANSTAT_RO0   0x000f3e       data     extern E:\c18v3.46\pic18-lt\cxx-framework\src\traditional\proc\p18lf25k80.asm
               CANCON_RO0   0x000f3f       data     extern E:\c18v3.46\pic18-lt\cxx-framework\src\traditional\proc\p18lf25k80.asm
           CANCON_RO0bits   0x000f3f       data     extern E:\c18v3.46\pic18-lt\cxx-framework\src\traditional\proc\p18lf25k80.asm
                  CCP5CON   0x000f47       data     extern E:\c18v3.46\pic18-lt\cxx-framework\src\traditional\proc\p18lf25k80.asm
              CCP5CONbits   0x000f47       data     extern E:\c18v3.46\pic18-lt\cxx-framework\src\traditional\proc\p18lf25k80.asm
                    CCPR5   0x000f48       data     extern E:\c18v3.46\pic18-lt\cxx-framework\src\traditional\proc\p18lf25k80.asm
                   CCPR5L   0x000f48       data     extern E:\c18v3.46\pic18-lt\cxx-framework\src\traditional\proc\p18lf25k80.asm
                   CCPR5H   0x000f49       data     extern E:\c18v3.46\pic18-lt\cxx-framework\src\traditional\proc\p18lf25k80.asm
                  CCP4CON   0x000f4a       data     extern E:\c18v3.46\pic18-lt\cxx-framework\src\traditional\proc\p18lf25k80.asm
              CCP4CONbits   0x000f4a       data     extern E:\c18v3.46\pic18-lt\cxx-framework\src\traditional\proc\p18lf25k80.asm
                   CCPR4L   0x000f4b       data     extern E:\c18v3.46\pic18-lt\cxx-framework\src\traditional\proc\p18lf25k80.asm
                    CCPR4   0x000f4b       data     extern E:\c18v3.46\pic18-lt\cxx-framework\src\traditional\proc\p18lf25k80.asm
                   CCPR4H   0x000f4c       data     extern E:\c18v3.46\pic18-lt\cxx-framework\src\traditional\proc\p18lf25k80.asm
              CCP3CONbits   0x000f4d       data     extern E:\c18v3.46\pic18-lt\cxx-framework\src\traditional\proc\p18lf25k80.asm
                  CCP3CON   0x000f4d       data     extern E:\c18v3.46\pic18-lt\cxx-framework\src\traditional\proc\p18lf25k80.asm
                    CCPR3   0x000f4e       data     extern E:\c18v3.46\pic18-lt\cxx-framework\src\traditional\proc\p18lf25k80.asm
                   CCPR3L   0x000f4e       data     extern E:\c18v3.46\pic18-lt\cxx-framework\src\traditional\proc\p18lf25k80.asm
                   CCPR3H   0x000f4f       data     extern E:\c18v3.46\pic18-lt\cxx-framework\src\traditional\proc\p18lf25k80.asm
              CCP2CONbits   0x000f50       data     extern E:\c18v3.46\pic18-lt\cxx-framework\src\traditional\proc\p18lf25k80.asm
                  CCP2CON   0x000f50       data     extern E:\c18v3.46\pic18-lt\cxx-framework\src\traditional\proc\p18lf25k80.asm
                 ECCP2CON   0x000f50       data     extern E:\c18v3.46\pic18-lt\cxx-framework\src\traditional\proc\p18lf25k80.asm
             ECCP2CONbits   0x000f50       data     extern E:\c18v3.46\pic18-lt\cxx-framework\src\traditional\proc\p18lf25k80.asm
                    CCPR2   0x000f51       data     extern E:\c18v3.46\pic18-lt\cxx-framework\src\traditional\proc\p18lf25k80.asm
                   CCPR2L   0x000f51       data     extern E:\c18v3.46\pic18-lt\cxx-framework\src\traditional\proc\p18lf25k80.asm
                   CCPR2H   0x000f52       data     extern E:\c18v3.46\pic18-lt\cxx-framework\src\traditional\proc\p18lf25k80.asm
                 CTMUICON   0x000f53       data     extern E:\c18v3.46\pic18-lt\cxx-framework\src\traditional\proc\p18lf25k80.asm
             CTMUICONbits   0x000f53       data     extern E:\c18v3.46\pic18-lt\cxx-framework\src\traditional\proc\p18lf25k80.asm
             CTMUCONLbits   0x000f54       data     extern E:\c18v3.46\pic18-lt\cxx-framework\src\traditional\proc\p18lf25k80.asm
                 CTMUCONL   0x000f54       data     extern E:\c18v3.46\pic18-lt\cxx-framework\src\traditional\proc\p18lf25k80.asm
                 CTMUCONH   0x000f55       data     extern E:\c18v3.46\pic18-lt\cxx-framework\src\traditional\proc\p18lf25k80.asm
             CTMUCONHbits   0x000f55       data     extern E:\c18v3.46\pic18-lt\cxx-framework\src\traditional\proc\p18lf25k80.asm
              PADCFG1bits   0x000f56       data     extern E:\c18v3.46\pic18-lt\cxx-framework\src\traditional\proc\p18lf25k80.asm
                  PADCFG1   0x000f56       data     extern E:\c18v3.46\pic18-lt\cxx-framework\src\traditional\proc\p18lf25k80.asm
                     PMD2   0x000f57       data     extern E:\c18v3.46\pic18-lt\cxx-framework\src\traditional\proc\p18lf25k80.asm
                 PMD2bits   0x000f57       data     extern E:\c18v3.46\pic18-lt\cxx-framework\src\traditional\proc\p18lf25k80.asm
                 PMD1bits   0x000f58       data     extern E:\c18v3.46\pic18-lt\cxx-framework\src\traditional\proc\p18lf25k80.asm
                     PMD1   0x000f58       data     extern E:\c18v3.46\pic18-lt\cxx-framework\src\traditional\proc\p18lf25k80.asm
                 PMD0bits   0x000f59       data     extern E:\c18v3.46\pic18-lt\cxx-framework\src\traditional\proc\p18lf25k80.asm
                     PMD0   0x000f59       data     extern E:\c18v3.46\pic18-lt\cxx-framework\src\traditional\proc\p18lf25k80.asm
                     IOCB   0x000f5a       data     extern E:\c18v3.46\pic18-lt\cxx-framework\src\traditional\proc\p18lf25k80.asm
                 IOCBbits   0x000f5a       data     extern E:\c18v3.46\pic18-lt\cxx-framework\src\traditional\proc\p18lf25k80.asm
                 WPUBbits   0x000f5b       data     extern E:\c18v3.46\pic18-lt\cxx-framework\src\traditional\proc\p18lf25k80.asm
                     WPUB   0x000f5b       data     extern E:\c18v3.46\pic18-lt\cxx-framework\src\traditional\proc\p18lf25k80.asm
                   ANCON1   0x000f5c       data     extern E:\c18v3.46\pic18-lt\cxx-framework\src\traditional\proc\p18lf25k80.asm
               ANCON1bits   0x000f5c       data     extern E:\c18v3.46\pic18-lt\cxx-framework\src\traditional\proc\p18lf25k80.asm
               ANCON0bits   0x000f5d       data     extern E:\c18v3.46\pic18-lt\cxx-framework\src\traditional\proc\p18lf25k80.asm
                   ANCON0   0x000f5d       data     extern E:\c18v3.46\pic18-lt\cxx-framework\src\traditional\proc\p18lf25k80.asm
                   CM2CON   0x000f5e       data     extern E:\c18v3.46\pic18-lt\cxx-framework\src\traditional\proc\p18lf25k80.asm
                  CM2CON1   0x000f5e       data     extern E:\c18v3.46\pic18-lt\cxx-framework\src\traditional\proc\p18lf25k80.asm
              CM2CON1bits   0x000f5e       data     extern E:\c18v3.46\pic18-lt\cxx-framework\src\traditional\proc\p18lf25k80.asm
               CM2CONbits   0x000f5e       data     extern E:\c18v3.46\pic18-lt\cxx-framework\src\traditional\proc\p18lf25k80.asm
               CM1CONbits   0x000f5f       data     extern E:\c18v3.46\pic18-lt\cxx-framework\src\traditional\proc\p18lf25k80.asm
              CM1CON1bits   0x000f5f       data     extern E:\c18v3.46\pic18-lt\cxx-framework\src\traditional\proc\p18lf25k80.asm
                  CM1CON1   0x000f5f       data     extern E:\c18v3.46\pic18-lt\cxx-framework\src\traditional\proc\p18lf25k80.asm
                   CM1CON   0x000f5f       data     extern E:\c18v3.46\pic18-lt\cxx-framework\src\traditional\proc\p18lf25k80.asm
              RXB0CONbits   0x000f60       data     extern E:\c18v3.46\pic18-lt\cxx-framework\src\traditional\proc\p18lf25k80.asm
                  RXB0CON   0x000f60       data     extern E:\c18v3.46\pic18-lt\cxx-framework\src\traditional\proc\p18lf25k80.asm
             RXB0SIDHbits   0x000f61       data     extern E:\c18v3.46\pic18-lt\cxx-framework\src\traditional\proc\p18lf25k80.asm
                 RXB0SIDH   0x000f61       data     extern E:\c18v3.46\pic18-lt\cxx-framework\src\traditional\proc\p18lf25k80.asm
                 RXB0SIDL   0x000f62       data     extern E:\c18v3.46\pic18-lt\cxx-framework\src\traditional\proc\p18lf25k80.asm
             RXB0SIDLbits   0x000f62       data     extern E:\c18v3.46\pic18-lt\cxx-framework\src\traditional\proc\p18lf25k80.asm
                 RXB0EIDH   0x000f63       data     extern E:\c18v3.46\pic18-lt\cxx-framework\src\traditional\proc\p18lf25k80.asm
             RXB0EIDHbits   0x000f63       data     extern E:\c18v3.46\pic18-lt\cxx-framework\src\traditional\proc\p18lf25k80.asm
                 RXB0EIDL   0x000f64       data     extern E:\c18v3.46\pic18-lt\cxx-framework\src\traditional\proc\p18lf25k80.asm
             RXB0EIDLbits   0x000f64       data     extern E:\c18v3.46\pic18-lt\cxx-framework\src\traditional\proc\p18lf25k80.asm
                  RXB0DLC   0x000f65       data     extern E:\c18v3.46\pic18-lt\cxx-framework\src\traditional\proc\p18lf25k80.asm
              RXB0DLCbits   0x000f65       data     extern E:\c18v3.46\pic18-lt\cxx-framework\src\traditional\proc\p18lf25k80.asm
                   RXB0D0   0x000f66       data     extern E:\c18v3.46\pic18-lt\cxx-framework\src\traditional\proc\p18lf25k80.asm
               RXB0D0bits   0x000f66       data     extern E:\c18v3.46\pic18-lt\cxx-framework\src\traditional\proc\p18lf25k80.asm
                   RXB0D1   0x000f67       data     extern E:\c18v3.46\pic18-lt\cxx-framework\src\traditional\proc\p18lf25k80.asm
               RXB0D1bits   0x000f67       data     extern E:\c18v3.46\pic18-lt\cxx-framework\src\traditional\proc\p18lf25k80.asm
               RXB0D2bits   0x000f68       data     extern E:\c18v3.46\pic18-lt\cxx-framework\src\traditional\proc\p18lf25k80.asm
                   RXB0D2   0x000f68       data     extern E:\c18v3.46\pic18-lt\cxx-framework\src\traditional\proc\p18lf25k80.asm
                   RXB0D3   0x000f69       data     extern E:\c18v3.46\pic18-lt\cxx-framework\src\traditional\proc\p18lf25k80.asm
               RXB0D3bits   0x000f69       data     extern E:\c18v3.46\pic18-lt\cxx-framework\src\traditional\proc\p18lf25k80.asm
               RXB0D4bits   0x000f6a       data     extern E:\c18v3.46\pic18-lt\cxx-framework\src\traditional\proc\p18lf25k80.asm
                   RXB0D4   0x000f6a       data     extern E:\c18v3.46\pic18-lt\cxx-framework\src\traditional\proc\p18lf25k80.asm
               RXB0D5bits   0x000f6b       data     extern E:\c18v3.46\pic18-lt\cxx-framework\src\traditional\proc\p18lf25k80.asm
                   RXB0D5   0x000f6b       data     extern E:\c18v3.46\pic18-lt\cxx-framework\src\traditional\proc\p18lf25k80.asm
                   RXB0D6   0x000f6c       data     extern E:\c18v3.46\pic18-lt\cxx-framework\src\traditional\proc\p18lf25k80.asm
               RXB0D6bits   0x000f6c       data     extern E:\c18v3.46\pic18-lt\cxx-framework\src\traditional\proc\p18lf25k80.asm
               RXB0D7bits   0x000f6d       data     extern E:\c18v3.46\pic18-lt\cxx-framework\src\traditional\proc\p18lf25k80.asm
                   RXB0D7   0x000f6d       data     extern E:\c18v3.46\pic18-lt\cxx-framework\src\traditional\proc\p18lf25k80.asm
                  CANSTAT   0x000f6e       data     extern E:\c18v3.46\pic18-lt\cxx-framework\src\traditional\proc\p18lf25k80.asm
              CANSTATbits   0x000f6e       data     extern E:\c18v3.46\pic18-lt\cxx-framework\src\traditional\proc\p18lf25k80.asm
                   CANCON   0x000f6f       data     extern E:\c18v3.46\pic18-lt\cxx-framework\src\traditional\proc\p18lf25k80.asm
               CANCONbits   0x000f6f       data     extern E:\c18v3.46\pic18-lt\cxx-framework\src\traditional\proc\p18lf25k80.asm
               CIOCONbits   0x000f70       data     extern E:\c18v3.46\pic18-lt\cxx-framework\src\traditional\proc\p18lf25k80.asm
                   CIOCON   0x000f70       data     extern E:\c18v3.46\pic18-lt\cxx-framework\src\traditional\proc\p18lf25k80.asm
                  COMSTAT   0x000f71       data     extern E:\c18v3.46\pic18-lt\cxx-framework\src\traditional\proc\p18lf25k80.asm
              COMSTATbits   0x000f71       data     extern E:\c18v3.46\pic18-lt\cxx-framework\src\traditional\proc\p18lf25k80.asm
              ECANCONbits   0x000f72       data     extern E:\c18v3.46\pic18-lt\cxx-framework\src\traditional\proc\p18lf25k80.asm
                  ECANCON   0x000f72       data     extern E:\c18v3.46\pic18-lt\cxx-framework\src\traditional\proc\p18lf25k80.asm
                   EEDATA   0x000f73       data     extern E:\c18v3.46\pic18-lt\cxx-framework\src\traditional\proc\p18lf25k80.asm
                    EEADR   0x000f74       data     extern E:\c18v3.46\pic18-lt\cxx-framework\src\traditional\proc\p18lf25k80.asm
                   EEADRH   0x000f75       data     extern E:\c18v3.46\pic18-lt\cxx-framework\src\traditional\proc\p18lf25k80.asm
                 PIE5bits   0x000f76       data     extern E:\c18v3.46\pic18-lt\cxx-framework\src\traditional\proc\p18lf25k80.asm
                     PIE5   0x000f76       data     extern E:\c18v3.46\pic18-lt\cxx-framework\src\traditional\proc\p18lf25k80.asm
                     PIR5   0x000f77       data     extern E:\c18v3.46\pic18-lt\cxx-framework\src\traditional\proc\p18lf25k80.asm
                 PIR5bits   0x000f77       data     extern E:\c18v3.46\pic18-lt\cxx-framework\src\traditional\proc\p18lf25k80.asm
                 IPR5bits   0x000f78       data     extern E:\c18v3.46\pic18-lt\cxx-framework\src\traditional\proc\p18lf25k80.asm
                     IPR5   0x000f78       data     extern E:\c18v3.46\pic18-lt\cxx-framework\src\traditional\proc\p18lf25k80.asm
                   TXREG2   0x000f79       data     extern E:\c18v3.46\pic18-lt\cxx-framework\src\traditional\proc\p18lf25k80.asm
                   RCREG2   0x000f7a       data     extern E:\c18v3.46\pic18-lt\cxx-framework\src\traditional\proc\p18lf25k80.asm
                   SPBRG2   0x000f7b       data     extern E:\c18v3.46\pic18-lt\cxx-framework\src\traditional\proc\p18lf25k80.asm
                  SPBRGH2   0x000f7c       data     extern E:\c18v3.46\pic18-lt\cxx-framework\src\traditional\proc\p18lf25k80.asm
                  SPBRGH1   0x000f7d       data     extern E:\c18v3.46\pic18-lt\cxx-framework\src\traditional\proc\p18lf25k80.asm
                   EECON2   0x000f7e       data     extern E:\c18v3.46\pic18-lt\cxx-framework\src\traditional\proc\p18lf25k80.asm
               EECON1bits   0x000f7f       data     extern E:\c18v3.46\pic18-lt\cxx-framework\src\traditional\proc\p18lf25k80.asm
                   EECON1   0x000f7f       data     extern E:\c18v3.46\pic18-lt\cxx-framework\src\traditional\proc\p18lf25k80.asm
                    PORTA   0x000f80       data     extern E:\c18v3.46\pic18-lt\cxx-framework\src\traditional\proc\p18lf25k80.asm
                PORTAbits   0x000f80       data     extern E:\c18v3.46\pic18-lt\cxx-framework\src\traditional\proc\p18lf25k80.asm
                PORTBbits   0x000f81       data     extern E:\c18v3.46\pic18-lt\cxx-framework\src\traditional\proc\p18lf25k80.asm
                    PORTB   0x000f81       data     extern E:\c18v3.46\pic18-lt\cxx-framework\src\traditional\proc\p18lf25k80.asm
                    PORTC   0x000f82       data     extern E:\c18v3.46\pic18-lt\cxx-framework\src\traditional\proc\p18lf25k80.asm
                PORTCbits   0x000f82       data     extern E:\c18v3.46\pic18-lt\cxx-framework\src\traditional\proc\p18lf25k80.asm
                    PORTE   0x000f84       data     extern E:\c18v3.46\pic18-lt\cxx-framework\src\traditional\proc\p18lf25k80.asm
                PORTEbits   0x000f84       data     extern E:\c18v3.46\pic18-lt\cxx-framework\src\traditional\proc\p18lf25k80.asm
                     TMR4   0x000f87       data     extern E:\c18v3.46\pic18-lt\cxx-framework\src\traditional\proc\p18lf25k80.asm
                T4CONbits   0x000f88       data     extern E:\c18v3.46\pic18-lt\cxx-framework\src\traditional\proc\p18lf25k80.asm
                    T4CON   0x000f88       data     extern E:\c18v3.46\pic18-lt\cxx-framework\src\traditional\proc\p18lf25k80.asm
                     LATA   0x000f89       data     extern E:\c18v3.46\pic18-lt\cxx-framework\src\traditional\proc\p18lf25k80.asm
                 LATAbits   0x000f89       data     extern E:\c18v3.46\pic18-lt\cxx-framework\src\traditional\proc\p18lf25k80.asm
                 LATBbits   0x000f8a       data     extern E:\c18v3.46\pic18-lt\cxx-framework\src\traditional\proc\p18lf25k80.asm
                     LATB   0x000f8a       data     extern E:\c18v3.46\pic18-lt\cxx-framework\src\traditional\proc\p18lf25k80.asm
                 LATCbits   0x000f8b       data     extern E:\c18v3.46\pic18-lt\cxx-framework\src\traditional\proc\p18lf25k80.asm
                     LATC   0x000f8b       data     extern E:\c18v3.46\pic18-lt\cxx-framework\src\traditional\proc\p18lf25k80.asm
                   SLRCON   0x000f90       data     extern E:\c18v3.46\pic18-lt\cxx-framework\src\traditional\proc\p18lf25k80.asm
               SLRCONbits   0x000f90       data     extern E:\c18v3.46\pic18-lt\cxx-framework\src\traditional\proc\p18lf25k80.asm
                    ODCON   0x000f91       data     extern E:\c18v3.46\pic18-lt\cxx-framework\src\traditional\proc\p18lf25k80.asm
                ODCONbits   0x000f91       data     extern E:\c18v3.46\pic18-lt\cxx-framework\src\traditional\proc\p18lf25k80.asm
                    TRISA   0x000f92       data     extern E:\c18v3.46\pic18-lt\cxx-framework\src\traditional\proc\p18lf25k80.asm
                TRISAbits   0x000f92       data     extern E:\c18v3.46\pic18-lt\cxx-framework\src\traditional\proc\p18lf25k80.asm
                    TRISB   0x000f93       data     extern E:\c18v3.46\pic18-lt\cxx-framework\src\traditional\proc\p18lf25k80.asm
                TRISBbits   0x000f93       data     extern E:\c18v3.46\pic18-lt\cxx-framework\src\traditional\proc\p18lf25k80.asm
                TRISCbits   0x000f94       data     extern E:\c18v3.46\pic18-lt\cxx-framework\src\traditional\proc\p18lf25k80.asm
                    TRISC   0x000f94       data     extern E:\c18v3.46\pic18-lt\cxx-framework\src\traditional\proc\p18lf25k80.asm
                  CCPTMRS   0x000f99       data     extern E:\c18v3.46\pic18-lt\cxx-framework\src\traditional\proc\p18lf25k80.asm
              CCPTMRSbits   0x000f99       data     extern E:\c18v3.46\pic18-lt\cxx-framework\src\traditional\proc\p18lf25k80.asm
              REFOCONbits   0x000f9a       data     extern E:\c18v3.46\pic18-lt\cxx-framework\src\traditional\proc\p18lf25k80.asm
                  REFOCON   0x000f9a       data     extern E:\c18v3.46\pic18-lt\cxx-framework\src\traditional\proc\p18lf25k80.asm
                  OSCTUNE   0x000f9b       data     extern E:\c18v3.46\pic18-lt\cxx-framework\src\traditional\proc\p18lf25k80.asm
              OSCTUNEbits   0x000f9b       data     extern E:\c18v3.46\pic18-lt\cxx-framework\src\traditional\proc\p18lf25k80.asm
                 PSTR1CON   0x000f9c       data     extern E:\c18v3.46\pic18-lt\cxx-framework\src\traditional\proc\p18lf25k80.asm
             PSTR1CONbits   0x000f9c       data     extern E:\c18v3.46\pic18-lt\cxx-framework\src\traditional\proc\p18lf25k80.asm
                 PIE1bits   0x000f9d       data     extern E:\c18v3.46\pic18-lt\cxx-framework\src\traditional\proc\p18lf25k80.asm
                     PIE1   0x000f9d       data     extern E:\c18v3.46\pic18-lt\cxx-framework\src\traditional\proc\p18lf25k80.asm
                     PIR1   0x000f9e       data     extern E:\c18v3.46\pic18-lt\cxx-framework\src\traditional\proc\p18lf25k80.asm
                 PIR1bits   0x000f9e       data     extern E:\c18v3.46\pic18-lt\cxx-framework\src\traditional\proc\p18lf25k80.asm
                     IPR1   0x000f9f       data     extern E:\c18v3.46\pic18-lt\cxx-framework\src\traditional\proc\p18lf25k80.asm
                 IPR1bits   0x000f9f       data     extern E:\c18v3.46\pic18-lt\cxx-framework\src\traditional\proc\p18lf25k80.asm
                 PIE2bits   0x000fa0       data     extern E:\c18v3.46\pic18-lt\cxx-framework\src\traditional\proc\p18lf25k80.asm
                     PIE2   0x000fa0       data     extern E:\c18v3.46\pic18-lt\cxx-framework\src\traditional\proc\p18lf25k80.asm
                     PIR2   0x000fa1       data     extern E:\c18v3.46\pic18-lt\cxx-framework\src\traditional\proc\p18lf25k80.asm
                 PIR2bits   0x000fa1       data     extern E:\c18v3.46\pic18-lt\cxx-framework\src\traditional\proc\p18lf25k80.asm
                     IPR2   0x000fa2       data     extern E:\c18v3.46\pic18-lt\cxx-framework\src\traditional\proc\p18lf25k80.asm
                 IPR2bits   0x000fa2       data     extern E:\c18v3.46\pic18-lt\cxx-framework\src\traditional\proc\p18lf25k80.asm
                     PIE3   0x000fa3       data     extern E:\c18v3.46\pic18-lt\cxx-framework\src\traditional\proc\p18lf25k80.asm
                 PIE3bits   0x000fa3       data     extern E:\c18v3.46\pic18-lt\cxx-framework\src\traditional\proc\p18lf25k80.asm
                 PIR3bits   0x000fa4       data     extern E:\c18v3.46\pic18-lt\cxx-framework\src\traditional\proc\p18lf25k80.asm
                     PIR3   0x000fa4       data     extern E:\c18v3.46\pic18-lt\cxx-framework\src\traditional\proc\p18lf25k80.asm
                 IPR3bits   0x000fa5       data     extern E:\c18v3.46\pic18-lt\cxx-framework\src\traditional\proc\p18lf25k80.asm
                     IPR3   0x000fa5       data     extern E:\c18v3.46\pic18-lt\cxx-framework\src\traditional\proc\p18lf25k80.asm
                   RCSTA2   0x000fa6       data     extern E:\c18v3.46\pic18-lt\cxx-framework\src\traditional\proc\p18lf25k80.asm
               RCSTA2bits   0x000fa6       data     extern E:\c18v3.46\pic18-lt\cxx-framework\src\traditional\proc\p18lf25k80.asm
             BAUDCON1bits   0x000fa7       data     extern E:\c18v3.46\pic18-lt\cxx-framework\src\traditional\proc\p18lf25k80.asm
                 BAUDCON1   0x000fa7       data     extern E:\c18v3.46\pic18-lt\cxx-framework\src\traditional\proc\p18lf25k80.asm
              HLVDCONbits   0x000fa8       data     extern E:\c18v3.46\pic18-lt\cxx-framework\src\traditional\proc\p18lf25k80.asm
                  HLVDCON   0x000fa8       data     extern E:\c18v3.46\pic18-lt\cxx-framework\src\traditional\proc\p18lf25k80.asm
                      PR4   0x000fa9       data     extern E:\c18v3.46\pic18-lt\cxx-framework\src\traditional\proc\p18lf25k80.asm
               T1GCONbits   0x000faa       data     extern E:\c18v3.46\pic18-lt\cxx-framework\src\traditional\proc\p18lf25k80.asm
                   T1GCON   0x000faa       data     extern E:\c18v3.46\pic18-lt\cxx-framework\src\traditional\proc\p18lf25k80.asm
                RCSTAbits   0x000fab       data     extern E:\c18v3.46\pic18-lt\cxx-framework\src\traditional\proc\p18lf25k80.asm
                    RCSTA   0x000fab       data     extern E:\c18v3.46\pic18-lt\cxx-framework\src\traditional\proc\p18lf25k80.asm
                   RCSTA1   0x000fab       data     extern E:\c18v3.46\pic18-lt\cxx-framework\src\traditional\proc\p18lf25k80.asm
               RCSTA1bits   0x000fab       data     extern E:\c18v3.46\pic18-lt\cxx-framework\src\traditional\proc\p18lf25k80.asm
                    TXSTA   0x000fac       data     extern E:\c18v3.46\pic18-lt\cxx-framework\src\traditional\proc\p18lf25k80.asm
                   TXSTA1   0x000fac       data     extern E:\c18v3.46\pic18-lt\cxx-framework\src\traditional\proc\p18lf25k80.asm
               TXSTA1bits   0x000fac       data     extern E:\c18v3.46\pic18-lt\cxx-framework\src\traditional\proc\p18lf25k80.asm
                TXSTAbits   0x000fac       data     extern E:\c18v3.46\pic18-lt\cxx-framework\src\traditional\proc\p18lf25k80.asm
                   TXREG1   0x000fad       data     extern E:\c18v3.46\pic18-lt\cxx-framework\src\traditional\proc\p18lf25k80.asm
                    TXREG   0x000fad       data     extern E:\c18v3.46\pic18-lt\cxx-framework\src\traditional\proc\p18lf25k80.asm
                    RCREG   0x000fae       data     extern E:\c18v3.46\pic18-lt\cxx-framework\src\traditional\proc\p18lf25k80.asm
                   RCREG1   0x000fae       data     extern E:\c18v3.46\pic18-lt\cxx-framework\src\traditional\proc\p18lf25k80.asm
                    SPBRG   0x000faf       data     extern E:\c18v3.46\pic18-lt\cxx-framework\src\traditional\proc\p18lf25k80.asm
                   SPBRG1   0x000faf       data     extern E:\c18v3.46\pic18-lt\cxx-framework\src\traditional\proc\p18lf25k80.asm
               T3GCONbits   0x000fb0       data     extern E:\c18v3.46\pic18-lt\cxx-framework\src\traditional\proc\p18lf25k80.asm
                   T3GCON   0x000fb0       data     extern E:\c18v3.46\pic18-lt\cxx-framework\src\traditional\proc\p18lf25k80.asm
                    T3CON   0x000fb1       data     extern E:\c18v3.46\pic18-lt\cxx-framework\src\traditional\proc\p18lf25k80.asm
                T3CONbits   0x000fb1       data     extern E:\c18v3.46\pic18-lt\cxx-framework\src\traditional\proc\p18lf25k80.asm
                    TMR3L   0x000fb2       data     extern E:\c18v3.46\pic18-lt\cxx-framework\src\traditional\proc\p18lf25k80.asm
                    TMR3H   0x000fb3       data     extern E:\c18v3.46\pic18-lt\cxx-framework\src\traditional\proc\p18lf25k80.asm
               CMSTATbits   0x000fb4       data     extern E:\c18v3.46\pic18-lt\cxx-framework\src\traditional\proc\p18lf25k80.asm
             CMSTATUSbits   0x000fb4       data     extern E:\c18v3.46\pic18-lt\cxx-framework\src\traditional\proc\p18lf25k80.asm
                 CMSTATUS   0x000fb4       data     extern E:\c18v3.46\pic18-lt\cxx-framework\src\traditional\proc\p18lf25k80.asm
                   CMSTAT   0x000fb4       data     extern E:\c18v3.46\pic18-lt\cxx-framework\src\traditional\proc\p18lf25k80.asm
                   CVRCON   0x000fb5       data     extern E:\c18v3.46\pic18-lt\cxx-framework\src\traditional\proc\p18lf25k80.asm
               CVRCONbits   0x000fb5       data     extern E:\c18v3.46\pic18-lt\cxx-framework\src\traditional\proc\p18lf25k80.asm
                 PIE4bits   0x000fb6       data     extern E:\c18v3.46\pic18-lt\cxx-framework\src\traditional\proc\p18lf25k80.asm
                     PIE4   0x000fb6       data     extern E:\c18v3.46\pic18-lt\cxx-framework\src\traditional\proc\p18lf25k80.asm
                     PIR4   0x000fb7       data     extern E:\c18v3.46\pic18-lt\cxx-framework\src\traditional\proc\p18lf25k80.asm
                 PIR4bits   0x000fb7       data     extern E:\c18v3.46\pic18-lt\cxx-framework\src\traditional\proc\p18lf25k80.asm
                     IPR4   0x000fb8       data     extern E:\c18v3.46\pic18-lt\cxx-framework\src\traditional\proc\p18lf25k80.asm
                 IPR4bits   0x000fb8       data     extern E:\c18v3.46\pic18-lt\cxx-framework\src\traditional\proc\p18lf25k80.asm
             BAUDCON2bits   0x000fb9       data     extern E:\c18v3.46\pic18-lt\cxx-framework\src\traditional\proc\p18lf25k80.asm
                 BAUDCON2   0x000fb9       data     extern E:\c18v3.46\pic18-lt\cxx-framework\src\traditional\proc\p18lf25k80.asm
                   TXSTA2   0x000fba       data     extern E:\c18v3.46\pic18-lt\cxx-framework\src\traditional\proc\p18lf25k80.asm
               TXSTA2bits   0x000fba       data     extern E:\c18v3.46\pic18-lt\cxx-framework\src\traditional\proc\p18lf25k80.asm
             ECCP1CONbits   0x000fbb       data     extern E:\c18v3.46\pic18-lt\cxx-framework\src\traditional\proc\p18lf25k80.asm
                  CCP1CON   0x000fbb       data     extern E:\c18v3.46\pic18-lt\cxx-framework\src\traditional\proc\p18lf25k80.asm
                 ECCP1CON   0x000fbb       data     extern E:\c18v3.46\pic18-lt\cxx-framework\src\traditional\proc\p18lf25k80.asm
              CCP1CONbits   0x000fbb       data     extern E:\c18v3.46\pic18-lt\cxx-framework\src\traditional\proc\p18lf25k80.asm
                   CCPR1L   0x000fbc       data     extern E:\c18v3.46\pic18-lt\cxx-framework\src\traditional\proc\p18lf25k80.asm
                    CCPR1   0x000fbc       data     extern E:\c18v3.46\pic18-lt\cxx-framework\src\traditional\proc\p18lf25k80.asm
                   CCPR1H   0x000fbd       data     extern E:\c18v3.46\pic18-lt\cxx-framework\src\traditional\proc\p18lf25k80.asm
             ECCP1DELbits   0x000fbe       data     extern E:\c18v3.46\pic18-lt\cxx-framework\src\traditional\proc\p18lf25k80.asm
              PWM1CONbits   0x000fbe       data     extern E:\c18v3.46\pic18-lt\cxx-framework\src\traditional\proc\p18lf25k80.asm
                 ECCP1DEL   0x000fbe       data     extern E:\c18v3.46\pic18-lt\cxx-framework\src\traditional\proc\p18lf25k80.asm
                  PWM1CON   0x000fbe       data     extern E:\c18v3.46\pic18-lt\cxx-framework\src\traditional\proc\p18lf25k80.asm
                  ECCP1AS   0x000fbf       data     extern E:\c18v3.46\pic18-lt\cxx-framework\src\traditional\proc\p18lf25k80.asm
              ECCP1ASbits   0x000fbf       data     extern E:\c18v3.46\pic18-lt\cxx-framework\src\traditional\proc\p18lf25k80.asm
               ADCON2bits   0x000fc0       data     extern E:\c18v3.46\pic18-lt\cxx-framework\src\traditional\proc\p18lf25k80.asm
                   ADCON2   0x000fc0       data     extern E:\c18v3.46\pic18-lt\cxx-framework\src\traditional\proc\p18lf25k80.asm
                   ADCON1   0x000fc1       data     extern E:\c18v3.46\pic18-lt\cxx-framework\src\traditional\proc\p18lf25k80.asm
               ADCON1bits   0x000fc1       data     extern E:\c18v3.46\pic18-lt\cxx-framework\src\traditional\proc\p18lf25k80.asm
                   ADCON0   0x000fc2       data     extern E:\c18v3.46\pic18-lt\cxx-framework\src\traditional\proc\p18lf25k80.asm
               ADCON0bits   0x000fc2       data     extern E:\c18v3.46\pic18-lt\cxx-framework\src\traditional\proc\p18lf25k80.asm
                   ADRESL   0x000fc3       data     extern E:\c18v3.46\pic18-lt\cxx-framework\src\traditional\proc\p18lf25k80.asm
                    ADRES   0x000fc3       data     extern E:\c18v3.46\pic18-lt\cxx-framework\src\traditional\proc\p18lf25k80.asm
                   ADRESH   0x000fc4       data     extern E:\c18v3.46\pic18-lt\cxx-framework\src\traditional\proc\p18lf25k80.asm
              SSPCON2bits   0x000fc5       data     extern E:\c18v3.46\pic18-lt\cxx-framework\src\traditional\proc\p18lf25k80.asm
                  SSPCON2   0x000fc5       data     extern E:\c18v3.46\pic18-lt\cxx-framework\src\traditional\proc\p18lf25k80.asm
              SSPCON1bits   0x000fc6       data     extern E:\c18v3.46\pic18-lt\cxx-framework\src\traditional\proc\p18lf25k80.asm
                  SSPCON1   0x000fc6       data     extern E:\c18v3.46\pic18-lt\cxx-framework\src\traditional\proc\p18lf25k80.asm
              SSPSTATbits   0x000fc7       data     extern E:\c18v3.46\pic18-lt\cxx-framework\src\traditional\proc\p18lf25k80.asm
                  SSPSTAT   0x000fc7       data     extern E:\c18v3.46\pic18-lt\cxx-framework\src\traditional\proc\p18lf25k80.asm
               SSPADDbits   0x000fc8       data     extern E:\c18v3.46\pic18-lt\cxx-framework\src\traditional\proc\p18lf25k80.asm
                   SSPADD   0x000fc8       data     extern E:\c18v3.46\pic18-lt\cxx-framework\src\traditional\proc\p18lf25k80.asm
                   SSPBUF   0x000fc9       data     extern E:\c18v3.46\pic18-lt\cxx-framework\src\traditional\proc\p18lf25k80.asm
                T2CONbits   0x000fca       data     extern E:\c18v3.46\pic18-lt\cxx-framework\src\traditional\proc\p18lf25k80.asm
                    T2CON   0x000fca       data     extern E:\c18v3.46\pic18-lt\cxx-framework\src\traditional\proc\p18lf25k80.asm
                      PR2   0x000fcb       data     extern E:\c18v3.46\pic18-lt\cxx-framework\src\traditional\proc\p18lf25k80.asm
                     TMR2   0x000fcc       data     extern E:\c18v3.46\pic18-lt\cxx-framework\src\traditional\proc\p18lf25k80.asm
                T1CONbits   0x000fcd       data     extern E:\c18v3.46\pic18-lt\cxx-framework\src\traditional\proc\p18lf25k80.asm
                    T1CON   0x000fcd       data     extern E:\c18v3.46\pic18-lt\cxx-framework\src\traditional\proc\p18lf25k80.asm
                    TMR1L   0x000fce       data     extern E:\c18v3.46\pic18-lt\cxx-framework\src\traditional\proc\p18lf25k80.asm
                    TMR1H   0x000fcf       data     extern E:\c18v3.46\pic18-lt\cxx-framework\src\traditional\proc\p18lf25k80.asm
                     RCON   0x000fd0       data     extern E:\c18v3.46\pic18-lt\cxx-framework\src\traditional\proc\p18lf25k80.asm
                 RCONbits   0x000fd0       data     extern E:\c18v3.46\pic18-lt\cxx-framework\src\traditional\proc\p18lf25k80.asm
               WDTCONbits   0x000fd1       data     extern E:\c18v3.46\pic18-lt\cxx-framework\src\traditional\proc\p18lf25k80.asm
                   WDTCON   0x000fd1       data     extern E:\c18v3.46\pic18-lt\cxx-framework\src\traditional\proc\p18lf25k80.asm
              OSCCON2bits   0x000fd2       data     extern E:\c18v3.46\pic18-lt\cxx-framework\src\traditional\proc\p18lf25k80.asm
                  OSCCON2   0x000fd2       data     extern E:\c18v3.46\pic18-lt\cxx-framework\src\traditional\proc\p18lf25k80.asm
                   OSCCON   0x000fd3       data     extern E:\c18v3.46\pic18-lt\cxx-framework\src\traditional\proc\p18lf25k80.asm
               OSCCONbits   0x000fd3       data     extern E:\c18v3.46\pic18-lt\cxx-framework\src\traditional\proc\p18lf25k80.asm
                T0CONbits   0x000fd5       data     extern E:\c18v3.46\pic18-lt\cxx-framework\src\traditional\proc\p18lf25k80.asm
                    T0CON   0x000fd5       data     extern E:\c18v3.46\pic18-lt\cxx-framework\src\traditional\proc\p18lf25k80.asm
                    TMR0L   0x000fd6       data     extern E:\c18v3.46\pic18-lt\cxx-framework\src\traditional\proc\p18lf25k80.asm
                    TMR0H   0x000fd7       data     extern E:\c18v3.46\pic18-lt\cxx-framework\src\traditional\proc\p18lf25k80.asm
               STATUSbits   0x000fd8       data     extern E:\c18v3.46\pic18-lt\cxx-framework\src\traditional\proc\p18lf25k80.asm
                   STATUS   0x000fd8       data     extern E:\c18v3.46\pic18-lt\cxx-framework\src\traditional\proc\p18lf25k80.asm
                    FSR2L   0x000fd9       data     extern E:\c18v3.46\pic18-lt\cxx-framework\src\traditional\proc\p18lf25k80.asm
                     FSR2   0x000fd9       data     extern E:\c18v3.46\pic18-lt\cxx-framework\src\traditional\proc\p18lf25k80.asm
                FSR2Hbits   0x000fda       data     extern E:\c18v3.46\pic18-lt\cxx-framework\src\traditional\proc\p18lf25k80.asm
                    FSR2H   0x000fda       data     extern E:\c18v3.46\pic18-lt\cxx-framework\src\traditional\proc\p18lf25k80.asm
                   PLUSW2   0x000fdb       data     extern E:\c18v3.46\pic18-lt\cxx-framework\src\traditional\proc\p18lf25k80.asm
                  PREINC2   0x000fdc       data     extern E:\c18v3.46\pic18-lt\cxx-framework\src\traditional\proc\p18lf25k80.asm
                 POSTDEC2   0x000fdd       data     extern E:\c18v3.46\pic18-lt\cxx-framework\src\traditional\proc\p18lf25k80.asm
                 POSTINC2   0x000fde       data     extern E:\c18v3.46\pic18-lt\cxx-framework\src\traditional\proc\p18lf25k80.asm
                    INDF2   0x000fdf       data     extern E:\c18v3.46\pic18-lt\cxx-framework\src\traditional\proc\p18lf25k80.asm
                      BSR   0x000fe0       data     extern E:\c18v3.46\pic18-lt\cxx-framework\src\traditional\proc\p18lf25k80.asm
                  BSRbits   0x000fe0       data     extern E:\c18v3.46\pic18-lt\cxx-framework\src\traditional\proc\p18lf25k80.asm
                    FSR1L   0x000fe1       data     extern E:\c18v3.46\pic18-lt\cxx-framework\src\traditional\proc\p18lf25k80.asm
                     FSR1   0x000fe1       data     extern E:\c18v3.46\pic18-lt\cxx-framework\src\traditional\proc\p18lf25k80.asm
                FSR1Hbits   0x000fe2       data     extern E:\c18v3.46\pic18-lt\cxx-framework\src\traditional\proc\p18lf25k80.asm
                    FSR1H   0x000fe2       data     extern E:\c18v3.46\pic18-lt\cxx-framework\src\traditional\proc\p18lf25k80.asm
                   PLUSW1   0x000fe3       data     extern E:\c18v3.46\pic18-lt\cxx-framework\src\traditional\proc\p18lf25k80.asm
                  PREINC1   0x000fe4       data     extern E:\c18v3.46\pic18-lt\cxx-framework\src\traditional\proc\p18lf25k80.asm
                 POSTDEC1   0x000fe5       data     extern E:\c18v3.46\pic18-lt\cxx-framework\src\traditional\proc\p18lf25k80.asm
                 POSTINC1   0x000fe6       data     extern E:\c18v3.46\pic18-lt\cxx-framework\src\traditional\proc\p18lf25k80.asm
                    INDF1   0x000fe7       data     extern E:\c18v3.46\pic18-lt\cxx-framework\src\traditional\proc\p18lf25k80.asm
                     WREG   0x000fe8       data     extern E:\c18v3.46\pic18-lt\cxx-framework\src\traditional\proc\p18lf25k80.asm
                    FSR0L   0x000fe9       data     extern E:\c18v3.46\pic18-lt\cxx-framework\src\traditional\proc\p18lf25k80.asm
                     FSR0   0x000fe9       data     extern E:\c18v3.46\pic18-lt\cxx-framework\src\traditional\proc\p18lf25k80.asm
                FSR0Hbits   0x000fea       data     extern E:\c18v3.46\pic18-lt\cxx-framework\src\traditional\proc\p18lf25k80.asm
                    FSR0H   0x000fea       data     extern E:\c18v3.46\pic18-lt\cxx-framework\src\traditional\proc\p18lf25k80.asm
                   PLUSW0   0x000feb       data     extern E:\c18v3.46\pic18-lt\cxx-framework\src\traditional\proc\p18lf25k80.asm
                  PREINC0   0x000fec       data     extern E:\c18v3.46\pic18-lt\cxx-framework\src\traditional\proc\p18lf25k80.asm
                 POSTDEC0   0x000fed       data     extern E:\c18v3.46\pic18-lt\cxx-framework\src\traditional\proc\p18lf25k80.asm
                 POSTINC0   0x000fee       data     extern E:\c18v3.46\pic18-lt\cxx-framework\src\traditional\proc\p18lf25k80.asm
                    INDF0   0x000fef       data     extern E:\c18v3.46\pic18-lt\cxx-framework\src\traditional\proc\p18lf25k80.asm
              INTCON3bits   0x000ff0       data     extern E:\c18v3.46\pic18-lt\cxx-framework\src\traditional\proc\p18lf25k80.asm
                  INTCON3   0x000ff0       data     extern E:\c18v3.46\pic18-lt\cxx-framework\src\traditional\proc\p18lf25k80.asm
                  INTCON2   0x000ff1       data     extern E:\c18v3.46\pic18-lt\cxx-framework\src\traditional\proc\p18lf25k80.asm
              INTCON2bits   0x000ff1       data     extern E:\c18v3.46\pic18-lt\cxx-framework\src\traditional\proc\p18lf25k80.asm
               INTCONbits   0x000ff2       data     extern E:\c18v3.46\pic18-lt\cxx-framework\src\traditional\proc\p18lf25k80.asm
              INTCON1bits   0x000ff2       data     extern E:\c18v3.46\pic18-lt\cxx-framework\src\traditional\proc\p18lf25k80.asm
                  INTCON1   0x000ff2       data     extern E:\c18v3.46\pic18-lt\cxx-framework\src\traditional\proc\p18lf25k80.asm
                   INTCON   0x000ff2       data     extern E:\c18v3.46\pic18-lt\cxx-framework\src\traditional\proc\p18lf25k80.asm
                     PROD   0x000ff3       data     extern E:\c18v3.46\pic18-lt\cxx-framework\src\traditional\proc\p18lf25k80.asm
                    PRODL   0x000ff3       data     extern E:\c18v3.46\pic18-lt\cxx-framework\src\traditional\proc\p18lf25k80.asm
                    PRODH   0x000ff4       data     extern E:\c18v3.46\pic18-lt\cxx-framework\src\traditional\proc\p18lf25k80.asm
                   TABLAT   0x000ff5       data     extern E:\c18v3.46\pic18-lt\cxx-framework\src\traditional\proc\p18lf25k80.asm
                  TBLPTRL   0x000ff6       data     extern E:\c18v3.46\pic18-lt\cxx-framework\src\traditional\proc\p18lf25k80.asm
                   TBLPTR   0x000ff6       data     extern E:\c18v3.46\pic18-lt\cxx-framework\src\traditional\proc\p18lf25k80.asm
                  TBLPTRH   0x000ff7       data     extern E:\c18v3.46\pic18-lt\cxx-framework\src\traditional\proc\p18lf25k80.asm
              TBLPTRUbits   0x000ff8       data     extern E:\c18v3.46\pic18-lt\cxx-framework\src\traditional\proc\p18lf25k80.asm
                  TBLPTRU   0x000ff8       data     extern E:\c18v3.46\pic18-lt\cxx-framework\src\traditional\proc\p18lf25k80.asm
                      PCL   0x000ff9       data     extern E:\c18v3.46\pic18-lt\cxx-framework\src\traditional\proc\p18lf25k80.asm
                       PC   0x000ff9       data     extern E:\c18v3.46\pic18-lt\cxx-framework\src\traditional\proc\p18lf25k80.asm
                   PCLATH   0x000ffa       data     extern E:\c18v3.46\pic18-lt\cxx-framework\src\traditional\proc\p18lf25k80.asm
               PCLATUbits   0x000ffb       data     extern E:\c18v3.46\pic18-lt\cxx-framework\src\traditional\proc\p18lf25k80.asm
                   PCLATU   0x000ffb       data     extern E:\c18v3.46\pic18-lt\cxx-framework\src\traditional\proc\p18lf25k80.asm
                   STKPTR   0x000ffc       data     extern E:\c18v3.46\pic18-lt\cxx-framework\src\traditional\proc\p18lf25k80.asm
               STKPTRbits   0x000ffc       data     extern E:\c18v3.46\pic18-lt\cxx-framework\src\traditional\proc\p18lf25k80.asm
                     TOSL   0x000ffd       data     extern E:\c18v3.46\pic18-lt\cxx-framework\src\traditional\proc\p18lf25k80.asm
                      TOS   0x000ffd       data     extern E:\c18v3.46\pic18-lt\cxx-framework\src\traditional\proc\p18lf25k80.asm
                     TOSH   0x000ffe       data     extern E:\c18v3.46\pic18-lt\cxx-framework\src\traditional\proc\p18lf25k80.asm
                     TOSU   0x000fff       data     extern E:\c18v3.46\pic18-lt\cxx-framework\src\traditional\proc\p18lf25k80.asm
                 TOSUbits   0x000fff       data     extern E:\c18v3.46\pic18-lt\cxx-framework\src\traditional\proc\p18lf25k80.asm


